(dp0
Vfullscreen_mode
p1
I0
sVorientation
p2
Vhorizontal
p3
sVfocus
p4
(lp5
I94779451065600
aI94779451050032
asVsticky
p6
I00
sVurgent
p7
I00
sVlast_split_layout
p8
Vsplith
p9
sVfloating
p10
Vauto_off
p11
sVborder
p12
Vnormal
p13
sVid
p14
I94779451047344
sVcurrent_border_width
p15
I-1
sVlayout
p16
Vsplith
p17
sVpercent
p18
F1.0
sVworkspace_layout
p19
Vdefault
p20
sVwindow
p21
NsVnodes
p22
(lp23
(dp24
Vfullscreen_mode
p25
I0
sVorientation
p26
Vnone
p27
sVfocus
p28
(lp29
I94779451050528
asVsticky
p30
I00
sVurgent
p31
I00
sVlast_split_layout
p32
Vsplith
p33
sVfloating
p34
Vauto_off
p35
sVborder
p36
Vnormal
p37
sVid
p38
I94779451050032
sVcurrent_border_width
p39
I-1
sVlayout
p40
Voutput
p41
sVpercent
p42
F0.5
sVworkspace_layout
p43
Vdefault
p44
sVwindow
p45
NsVnodes
p46
(lp47
(dp48
Vfullscreen_mode
p49
I0
sVorientation
p50
Vhorizontal
p51
sVfocus
p52
(lp53
I94779451051024
asVsticky
p54
I00
sVurgent
p55
I00
sVlast_split_layout
p56
Vsplith
p57
sVfloating
p58
Vauto_off
p59
sVborder
p60
Vnormal
p61
sVid
p62
I94779451050528
sVcurrent_border_width
p63
I-1
sVlayout
p64
Vsplith
p65
sVpercent
p66
F1.0
sVworkspace_layout
p67
Vdefault
p68
sVwindow
p69
NsVnodes
p70
(lp71
(dp72
Vfullscreen_mode
p73
I1
sVorientation
p74
Vnone
p75
sVfocus
p76
(lp77
I94779451051520
asVsticky
p78
I00
sVurgent
p79
I00
sVnum
p80
I-1
sVlast_split_layout
p81
Vsplith
p82
sVfloating
p83
Vauto_off
p84
sVborder
p85
Vnormal
p86
sVid
p87
I94779451051024
sVcurrent_border_width
p88
I-1
sVlayout
p89
Vsplith
p90
sVpercent
p91
F1.0
sVworkspace_layout
p92
Vdefault
p93
sVwindow
p94
NsVnodes
p95
(lp96
sVtype
p97
Vworkspace
p98
sVdeco_rect
p99
(dp100
Vy
p101
I0
sVx
p102
I0
sVheight
p103
I0
sVwidth
p104
I0
ssVswallows
p105
(lp106
sVfocused
p107
I00
sVscratchpad_state
p108
Vnone
p109
sVrect
p110
(dp111
g101
I0
sg102
I0
sVheight
p112
I0
sVwidth
p113
I0
ssVwindow_rect
p114
(dp115
g101
I0
sg102
I0
sVheight
p116
I0
sVwidth
p117
I0
ssVname
p118
V__i3_scratch
p119
sVgeometry
p120
(dp121
g101
I0
sg102
I0
sVheight
p122
I0
sVwidth
p123
I0
ssVgaps
p124
(dp125
Vouter
p126
I0
sVinner
p127
I0
ssVfloating_nodes
p128
(lp129
(dp130
Vfullscreen_mode
p131
I0
sVorientation
p132
Vhorizontal
p133
sVfocus
p134
(lp135
I94779451051984
asVsticky
p136
I00
sVurgent
p137
I00
sVlast_split_layout
p138
Vsplith
p139
sVfloating
p140
Vauto_off
p141
sVborder
p142
Vnormal
p143
sVid
p144
I94779451051520
sVcurrent_border_width
p145
I-1
sVlayout
p146
Vsplith
p147
sVpercent
p148
NsVworkspace_layout
p149
Vdefault
p150
sVwindow
p151
NsVnodes
p152
(lp153
(dp154
Vwindow_properties
p155
(dp156
Vinstance
p157
Vtermite
p158
sVtransient_for
p159
NsVclass
p160
VTermite
p161
sVtitle
p162
Vnikd@arch-omen: ~
p163
ssVfullscreen_mode
p164
I0
sVorientation
p165
Vnone
p166
sVfocus
p167
(lp168
sVsticky
p169
I00
sVurgent
p170
I00
sVlast_split_layout
p171
Vsplith
p172
sVfloating
p173
Vuser_on
p174
sVborder
p175
Vpixel
p176
sVid
p177
I94779451051984
sVcurrent_border_width
p178
I1
sVlayout
p179
Vsplith
p180
sVpercent
p181
F1.0
sVworkspace_layout
p182
Vdefault
p183
sVwindow
p184
I83886083
sVnodes
p185
(lp186
sVtype
p187
Vcon
p188
sVdeco_rect
p189
(dp190
g101
I0
sg102
I0
sVheight
p191
I0
sVwidth
p192
I0
ssVswallows
p193
(lp194
sVfocused
p195
I00
sVscratchpad_state
p196
Vnone
p197
sVrect
p198
(dp199
g101
I5
sg102
I970
sVheight
p200
I468
sVwidth
p201
I952
ssVwindow_rect
p202
(dp203
g101
I1
sg102
I1
sVheight
p204
I466
sVwidth
p205
I950
ssVname
p206
Vnikd@arch-omen: ~
p207
sVgeometry
p208
(dp209
g101
I0
sg102
I0
sVheight
p210
I698
sVwidth
p211
I1122
ssVfloating_nodes
p212
(lp213
sVoutput
p214
V__i3
p215
sasVtype
p216
Vfloating_con
p217
sVdeco_rect
p218
(dp219
g101
I0
sg102
I0
sVheight
p220
I0
sVwidth
p221
I0
ssVswallows
p222
(lp223
sVfocused
p224
I00
sVscratchpad_state
p225
Vchanged
p226
sVrect
p227
(dp228
g101
I5
sg102
I970
sVheight
p229
I468
sVwidth
p230
I952
ssVwindow_rect
p231
(dp232
g101
I0
sg102
I0
sVheight
p233
I0
sVwidth
p234
I0
ssVname
p235
NsVgeometry
p236
(dp237
g101
I0
sg102
I0
sVheight
p238
I0
sVwidth
p239
I0
ssVfloating_nodes
p240
(lp241
sVoutput
p242
V__i3
p243
sasVoutput
p244
V__i3
p245
sasVtype
p246
Vcon
p247
sVdeco_rect
p248
(dp249
g101
I0
sg102
I0
sVheight
p250
I0
sVwidth
p251
I0
ssVswallows
p252
(lp253
sVfocused
p254
I00
sVscratchpad_state
p255
Vnone
p256
sVrect
p257
(dp258
g101
I0
sg102
I0
sVheight
p259
I0
sVwidth
p260
I0
ssVwindow_rect
p261
(dp262
g101
I0
sg102
I0
sVheight
p263
I0
sVwidth
p264
I0
ssVname
p265
Vcontent
p266
sVgeometry
p267
(dp268
g101
I0
sg102
I0
sVheight
p269
I0
sVwidth
p270
I0
ssVfloating_nodes
p271
(lp272
sVoutput
p273
V__i3
p274
sasVtype
p275
Voutput
p276
sVdeco_rect
p277
(dp278
g101
I0
sg102
I0
sVheight
p279
I0
sVwidth
p280
I0
ssVswallows
p281
(lp282
sVfocused
p283
I00
sVscratchpad_state
p284
Vnone
p285
sVrect
p286
(dp287
g101
I0
sg102
I0
sVheight
p288
I1080
sVwidth
p289
I1920
ssVwindow_rect
p290
(dp291
g101
I0
sg102
I0
sVheight
p292
I0
sVwidth
p293
I0
ssVname
p294
V__i3
p295
sVgeometry
p296
(dp297
g101
I0
sg102
I0
sVheight
p298
I0
sVwidth
p299
I0
ssVfloating_nodes
p300
(lp301
sa(dp302
Vfullscreen_mode
p303
I0
sVorientation
p304
Vnone
p305
sVfocus
p306
(lp307
I94779451069216
aI94779451066096
aI94779451229648
asVsticky
p308
I00
sVurgent
p309
I00
sVlast_split_layout
p310
Vsplith
p311
sVfloating
p312
Vauto_off
p313
sVborder
p314
Vnormal
p315
sVid
p316
I94779451065600
sVcurrent_border_width
p317
I-1
sVlayout
p318
Voutput
p319
sVpercent
p320
F0.5
sVworkspace_layout
p321
Vdefault
p322
sVwindow
p323
NsVnodes
p324
(lp325
(dp326
Vfullscreen_mode
p327
I0
sVorientation
p328
Vnone
p329
sVfocus
p330
(lp331
sVsticky
p332
I00
sVurgent
p333
I00
sVlast_split_layout
p334
Vsplith
p335
sVfloating
p336
Vauto_off
p337
sVborder
p338
Vnormal
p339
sVid
p340
I94779451066096
sVcurrent_border_width
p341
I-1
sVlayout
p342
Vdockarea
p343
sVpercent
p344
F0.3333333333333333
sVworkspace_layout
p345
Vdefault
p346
sVwindow
p347
NsVnodes
p348
(lp349
sVtype
p350
Vdockarea
p351
sVdeco_rect
p352
(dp353
g101
I0
sg102
I0
sVheight
p354
I0
sVwidth
p355
I0
ssVswallows
p356
(lp357
(dp358
Vdock
p359
I2
sVinsert_where
p360
I2
sasVfocused
p361
I00
sVscratchpad_state
p362
Vnone
p363
sVrect
p364
(dp365
g101
I0
sg102
I0
sVheight
p366
I0
sVwidth
p367
I1920
ssVwindow_rect
p368
(dp369
g101
I0
sg102
I0
sVheight
p370
I0
sVwidth
p371
I0
ssVname
p372
Vtopdock
p373
sVgeometry
p374
(dp375
g101
I0
sg102
I0
sVheight
p376
I0
sVwidth
p377
I0
ssVfloating_nodes
p378
(lp379
sVoutput
p380
VeDP1
p381
sa(dp382
Vfullscreen_mode
p383
I0
sVorientation
p384
Vhorizontal
p385
sVfocus
p386
(lp387
I94779451142112
aI94779451192112
aI94779451117744
aI94779451069712
asVsticky
p388
I00
sVurgent
p389
I00
sVlast_split_layout
p390
Vsplith
p391
sVfloating
p392
Vauto_off
p393
sVborder
p394
Vnormal
p395
sVid
p396
I94779451069216
sVcurrent_border_width
p397
I-1
sVlayout
p398
Vsplith
p399
sVpercent
p400
F0.3333333333333333
sVworkspace_layout
p401
Vdefault
p402
sVwindow
p403
NsVnodes
p404
(lp405
(dp406
Vfullscreen_mode
p407
I0
sVorientation
p408
Vvertical
p409
sVfocus
p410
(lp411
I94779451070208
asVsticky
p412
I00
sVurgent
p413
I00
sVnum
p414
I1
sVlast_split_layout
p415
Vsplitv
p416
sVfloating
p417
Vauto_off
p418
sVborder
p419
Vnormal
p420
sVid
p421
I94779451069712
sVcurrent_border_width
p422
I-1
sVlayout
p423
Vsplitv
p424
sVpercent
p425
F0.3333333333333333
sVworkspace_layout
p426
Vdefault
p427
sVwindow
p428
NsVnodes
p429
(lp430
(dp431
Vfullscreen_mode
p432
I0
sVorientation
p433
Vhorizontal
p434
sVfocus
p435
(lp436
I94779451070672
asVsticky
p437
I00
sVurgent
p438
I00
sVlast_split_layout
p439
Vsplith
p440
sVfloating
p441
Vauto_off
p442
sVborder
p443
Vnormal
p444
sVid
p445
I94779451070208
sVcurrent_border_width
p446
I-1
sVlayout
p447
Vsplith
p448
sVpercent
p449
F1.0
sVworkspace_layout
p450
Vdefault
p451
sVwindow
p452
NsVnodes
p453
(lp454
(dp455
Vfullscreen_mode
p456
I0
sVorientation
p457
Vhorizontal
p458
sVfocus
p459
(lp460
I94779451080528
aI94779451077408
aI94779451074272
aI94779451071136
aI94779451106592
aI94779451103312
aI94779451100032
aI94779451096768
aI94779451093504
aI94779451090224
aI94779451086944
aI94779451083664
asVsticky
p461
I00
sVurgent
p462
I00
sVlast_split_layout
p463
Vsplith
p464
sVfloating
p465
Vauto_off
p466
sVborder
p467
Vnormal
p468
sVid
p469
I94779451070672
sVcurrent_border_width
p470
I-1
sVlayout
p471
Vtabbed
p472
sVpercent
p473
F1.0
sVworkspace_layout
p474
Vdefault
p475
sVwindow
p476
NsVnodes
p477
(lp478
(dp479
Vwindow_properties
p480
(dp481
Vinstance
p482
Vvimb
p483
sVtransient_for
p484
NsVwindow_role
p485
VVimb
p486
sVclass
p487
VVimb
p488
sVtitle
p489
VSecure Shell - Wikipedia
p490
ssVfullscreen_mode
p491
I0
sVorientation
p492
Vnone
p493
sVprocess
p494
S'vimb'
p495
sVfocus
p496
(lp497
sVsticky
p498
I00
sVurgent
p499
I00
sVlast_split_layout
p500
Vsplith
p501
sVfloating
p502
Vauto_off
p503
sVborder
p504
Vpixel
p505
sVid
p506
I94779451071136
sVcurrent_border_width
p507
I1
sVlayout
p508
Vsplith
p509
sVpercent
p510
F0.08333333333333336
sVworkspace_layout
p511
Vdefault
p512
sVwindow
p513
I67108867
sVnodes
p514
(lp515
sVtype
p516
Vcon
p517
sVdeco_rect
p518
(dp519
g101
I0
sg102
I0
sVheight
p520
I22
sVwidth
p521
I160
ssVswallows
p522
(lp523
sVfocused
p524
I00
sVscratchpad_state
p525
Vnone
p526
sVrect
p527
(dp528
g101
I22
sg102
I0
sVheight
p529
I1058
sVwidth
p530
I1920
ssVwindow_rect
p531
(dp532
g101
I0
sg102
I0
sVheight
p533
I1058
sVwidth
p534
I1920
ssVname
p535
VSecure Shell - Wikipedia
p536
sVgeometry
p537
(dp538
g101
I0
sg102
I0
sVheight
p539
I600
sVwidth
p540
I800
ssVfloating_nodes
p541
(lp542
sVoutput
p543
VeDP1
p544
sa(dp545
Vwindow_properties
p546
(dp547
Vinstance
p548
Vvimb
p549
sVtransient_for
p550
NsVwindow_role
p551
VVimb
p552
sVclass
p553
VVimb
p554
sVtitle
p555
VCategory:Networking - ArchWiki
p556
ssVfullscreen_mode
p557
I0
sVorientation
p558
Vnone
p559
sg494
S'vimb'
p560
sVfocus
p561
(lp562
sVsticky
p563
I00
sVurgent
p564
I00
sVlast_split_layout
p565
Vsplith
p566
sVfloating
p567
Vauto_off
p568
sVborder
p569
Vpixel
p570
sVid
p571
I94779451074272
sVcurrent_border_width
p572
I1
sVlayout
p573
Vsplith
p574
sVpercent
p575
F0.08333333333333336
sVworkspace_layout
p576
Vdefault
p577
sVwindow
p578
I31457283
sVnodes
p579
(lp580
sVtype
p581
Vcon
p582
sVdeco_rect
p583
(dp584
g101
I0
sg102
I160
sVheight
p585
I22
sVwidth
p586
I160
ssVswallows
p587
(lp588
sVfocused
p589
I00
sVscratchpad_state
p590
Vnone
p591
sVrect
p592
(dp593
g101
I22
sg102
I0
sVheight
p594
I1058
sVwidth
p595
I1920
ssVwindow_rect
p596
(dp597
g101
I0
sg102
I0
sVheight
p598
I1058
sVwidth
p599
I1920
ssVname
p600
VCategory:Networking - ArchWiki
p601
sVgeometry
p602
(dp603
g101
I0
sg102
I0
sVheight
p604
I600
sVwidth
p605
I800
ssVfloating_nodes
p606
(lp607
sVoutput
p608
VeDP1
p609
sa(dp610
Vwindow_properties
p611
(dp612
Vinstance
p613
Vvimb
p614
sVtransient_for
p615
NsVwindow_role
p616
VVimb
p617
sVclass
p618
VVimb
p619
sVtitle
p620
VTelnet - Wikipedia
p621
ssVfullscreen_mode
p622
I0
sVorientation
p623
Vnone
p624
sg494
S'vimb'
p625
sVfocus
p626
(lp627
sVsticky
p628
I00
sVurgent
p629
I00
sVlast_split_layout
p630
Vsplith
p631
sVfloating
p632
Vauto_off
p633
sVborder
p634
Vpixel
p635
sVid
p636
I94779451077408
sVcurrent_border_width
p637
I1
sVlayout
p638
Vsplith
p639
sVpercent
p640
F0.08333333333333336
sVworkspace_layout
p641
Vdefault
p642
sVwindow
p643
I20971523
sVnodes
p644
(lp645
sVtype
p646
Vcon
p647
sVdeco_rect
p648
(dp649
g101
I0
sg102
I320
sVheight
p650
I22
sVwidth
p651
I160
ssVswallows
p652
(lp653
sVfocused
p654
I00
sVscratchpad_state
p655
Vnone
p656
sVrect
p657
(dp658
g101
I22
sg102
I0
sVheight
p659
I1058
sVwidth
p660
I1920
ssVwindow_rect
p661
(dp662
g101
I0
sg102
I0
sVheight
p663
I1058
sVwidth
p664
I1920
ssVname
p665
VTelnet - Wikipedia
p666
sVgeometry
p667
(dp668
g101
I0
sg102
I0
sVheight
p669
I600
sVwidth
p670
I800
ssVfloating_nodes
p671
(lp672
sVoutput
p673
VeDP1
p674
sa(dp675
Vwindow_properties
p676
(dp677
Vinstance
p678
Vvimb
p679
sVtransient_for
p680
NsVwindow_role
p681
VVimb
p682
sVclass
p683
VVimb
p684
sVtitle
p685
VBanner grabbing - Wikipedia
p686
ssVfullscreen_mode
p687
I0
sVorientation
p688
Vnone
p689
sg494
S'vimb'
p690
sVfocus
p691
(lp692
sVsticky
p693
I00
sVurgent
p694
I00
sVlast_split_layout
p695
Vsplith
p696
sVfloating
p697
Vauto_off
p698
sVborder
p699
Vpixel
p700
sVid
p701
I94779451080528
sVcurrent_border_width
p702
I1
sVlayout
p703
Vsplith
p704
sVpercent
p705
F0.08333333333333337
sVworkspace_layout
p706
Vdefault
p707
sVwindow
p708
I104857603
sVnodes
p709
(lp710
sVtype
p711
Vcon
p712
sVdeco_rect
p713
(dp714
g101
I0
sg102
I480
sVheight
p715
I22
sVwidth
p716
I160
ssVswallows
p717
(lp718
sVfocused
p719
I00
sVscratchpad_state
p720
Vnone
p721
sVrect
p722
(dp723
g101
I22
sg102
I0
sVheight
p724
I1058
sVwidth
p725
I1920
ssVwindow_rect
p726
(dp727
g101
I0
sg102
I0
sVheight
p728
I1058
sVwidth
p729
I1920
ssVname
p730
VBanner grabbing - Wikipedia
p731
sVgeometry
p732
(dp733
g101
I0
sg102
I0
sVheight
p734
I600
sVwidth
p735
I800
ssVfloating_nodes
p736
(lp737
sVoutput
p738
VeDP1
p739
sa(dp740
Vwindow_properties
p741
(dp742
Vinstance
p743
Vvimb
p744
sVtransient_for
p745
NsVwindow_role
p746
VVimb
p747
sVclass
p748
VVimb
p749
sVtitle
p750
VKermit (protocol) - Wikipedia
p751
ssVfullscreen_mode
p752
I0
sVorientation
p753
Vnone
p754
sg494
S'vimb'
p755
sVfocus
p756
(lp757
sVsticky
p758
I00
sVurgent
p759
I00
sVlast_split_layout
p760
Vsplith
p761
sVfloating
p762
Vauto_off
p763
sVborder
p764
Vpixel
p765
sVid
p766
I94779451083664
sVcurrent_border_width
p767
I1
sVlayout
p768
Vsplith
p769
sVpercent
p770
F0.08333333333333336
sVworkspace_layout
p771
Vdefault
p772
sVwindow
p773
I100663299
sVnodes
p774
(lp775
sVtype
p776
Vcon
p777
sVdeco_rect
p778
(dp779
g101
I0
sg102
I640
sVheight
p780
I22
sVwidth
p781
I160
ssVswallows
p782
(lp783
sVfocused
p784
I00
sVscratchpad_state
p785
Vnone
p786
sVrect
p787
(dp788
g101
I22
sg102
I0
sVheight
p789
I1058
sVwidth
p790
I1920
ssVwindow_rect
p791
(dp792
g101
I0
sg102
I0
sVheight
p793
I1058
sVwidth
p794
I1920
ssVname
p795
VKermit (protocol) - Wikipedia
p796
sVgeometry
p797
(dp798
g101
I0
sg102
I0
sVheight
p799
I600
sVwidth
p800
I800
ssVfloating_nodes
p801
(lp802
sVoutput
p803
VeDP1
p804
sa(dp805
Vwindow_properties
p806
(dp807
Vinstance
p808
Vvimb
p809
sVtransient_for
p810
NsVwindow_role
p811
VVimb
p812
sVclass
p813
VVimb
p814
sVtitle
p815
VVirtual terminal - Wikipedia
p816
ssVfullscreen_mode
p817
I0
sVorientation
p818
Vnone
p819
sg494
S'vimb'
p820
sVfocus
p821
(lp822
sVsticky
p823
I00
sVurgent
p824
I00
sVlast_split_layout
p825
Vsplith
p826
sVfloating
p827
Vauto_off
p828
sVborder
p829
Vpixel
p830
sVid
p831
I94779451086944
sVcurrent_border_width
p832
I1
sVlayout
p833
Vsplith
p834
sVpercent
p835
F0.08333333333333337
sVworkspace_layout
p836
Vdefault
p837
sVwindow
p838
I96468995
sVnodes
p839
(lp840
sVtype
p841
Vcon
p842
sVdeco_rect
p843
(dp844
g101
I0
sg102
I800
sVheight
p845
I22
sVwidth
p846
I160
ssVswallows
p847
(lp848
sVfocused
p849
I00
sVscratchpad_state
p850
Vnone
p851
sVrect
p852
(dp853
g101
I22
sg102
I0
sVheight
p854
I1058
sVwidth
p855
I1920
ssVwindow_rect
p856
(dp857
g101
I0
sg102
I0
sVheight
p858
I1058
sVwidth
p859
I1920
ssVname
p860
VVirtual terminal - Wikipedia
p861
sVgeometry
p862
(dp863
g101
I0
sg102
I0
sVheight
p864
I600
sVwidth
p865
I800
ssVfloating_nodes
p866
(lp867
sVoutput
p868
VeDP1
p869
sa(dp870
Vwindow_properties
p871
(dp872
Vinstance
p873
Vvimb
p874
sVtransient_for
p875
NsVwindow_role
p876
VVimb
p877
sVclass
p878
VVimb
p879
sVtitle
p880
VReverse telnet - Wikipedia
p881
ssVfullscreen_mode
p882
I0
sVorientation
p883
Vnone
p884
sg494
S'vimb'
p885
sVfocus
p886
(lp887
sVsticky
p888
I00
sVurgent
p889
I00
sVlast_split_layout
p890
Vsplith
p891
sVfloating
p892
Vauto_off
p893
sVborder
p894
Vpixel
p895
sVid
p896
I94779451090224
sVcurrent_border_width
p897
I1
sVlayout
p898
Vsplith
p899
sVpercent
p900
F0.08333333333333336
sVworkspace_layout
p901
Vdefault
p902
sVwindow
p903
I92274691
sVnodes
p904
(lp905
sVtype
p906
Vcon
p907
sVdeco_rect
p908
(dp909
g101
I0
sg102
I960
sVheight
p910
I22
sVwidth
p911
I160
ssVswallows
p912
(lp913
sVfocused
p914
I00
sVscratchpad_state
p915
Vnone
p916
sVrect
p917
(dp918
g101
I22
sg102
I0
sVheight
p919
I1058
sVwidth
p920
I1920
ssVwindow_rect
p921
(dp922
g101
I0
sg102
I0
sVheight
p923
I1058
sVwidth
p924
I1920
ssVname
p925
VReverse telnet - Wikipedia
p926
sVgeometry
p927
(dp928
g101
I0
sg102
I0
sVheight
p929
I600
sVwidth
p930
I800
ssVfloating_nodes
p931
(lp932
sVoutput
p933
VeDP1
p934
sa(dp935
Vwindow_properties
p936
(dp937
Vinstance
p938
Vvimb
p939
sVtransient_for
p940
NsVwindow_role
p941
VVimb
p942
sVclass
p943
VVimb
p944
sVtitle
p945
VHyTelnet - Wikipedia
p946
ssVfullscreen_mode
p947
I0
sVorientation
p948
Vnone
p949
sg494
S'vimb'
p950
sVfocus
p951
(lp952
sVsticky
p953
I00
sVurgent
p954
I00
sVlast_split_layout
p955
Vsplith
p956
sVfloating
p957
Vauto_off
p958
sVborder
p959
Vpixel
p960
sVid
p961
I94779451093504
sVcurrent_border_width
p962
I1
sVlayout
p963
Vsplith
p964
sVpercent
p965
F0.08333333333333336
sVworkspace_layout
p966
Vdefault
p967
sVwindow
p968
I88080387
sVnodes
p969
(lp970
sVtype
p971
Vcon
p972
sVdeco_rect
p973
(dp974
g101
I0
sg102
I1120
sVheight
p975
I22
sVwidth
p976
I160
ssVswallows
p977
(lp978
sVfocused
p979
I00
sVscratchpad_state
p980
Vnone
p981
sVrect
p982
(dp983
g101
I22
sg102
I0
sVheight
p984
I1058
sVwidth
p985
I1920
ssVwindow_rect
p986
(dp987
g101
I0
sg102
I0
sVheight
p988
I1058
sVwidth
p989
I1920
ssVname
p990
VHyTelnet - Wikipedia
p991
sVgeometry
p992
(dp993
g101
I0
sg102
I0
sVheight
p994
I600
sVwidth
p995
I800
ssVfloating_nodes
p996
(lp997
sVoutput
p998
VeDP1
p999
sa(dp1000
Vwindow_properties
p1001
(dp1002
Vinstance
p1003
Vvimb
p1004
sVtransient_for
p1005
NsVwindow_role
p1006
VVimb
p1007
sVclass
p1008
VVimb
p1009
sVtitle
p1010
VTelnet Options
p1011
ssVfullscreen_mode
p1012
I0
sVorientation
p1013
Vnone
p1014
sg494
S'vimb'
p1015
sVfocus
p1016
(lp1017
sVsticky
p1018
I00
sVurgent
p1019
I00
sVlast_split_layout
p1020
Vsplith
p1021
sVfloating
p1022
Vauto_off
p1023
sVborder
p1024
Vpixel
p1025
sVid
p1026
I94779451096768
sVcurrent_border_width
p1027
I1
sVlayout
p1028
Vsplith
p1029
sVpercent
p1030
F0.08333333333333336
sVworkspace_layout
p1031
Vdefault
p1032
sVwindow
p1033
I46137347
sVnodes
p1034
(lp1035
sVtype
p1036
Vcon
p1037
sVdeco_rect
p1038
(dp1039
g101
I0
sg102
I1280
sVheight
p1040
I22
sVwidth
p1041
I160
ssVswallows
p1042
(lp1043
sVfocused
p1044
I00
sVscratchpad_state
p1045
Vnone
p1046
sVrect
p1047
(dp1048
g101
I22
sg102
I0
sVheight
p1049
I1058
sVwidth
p1050
I1920
ssVwindow_rect
p1051
(dp1052
g101
I0
sg102
I0
sVheight
p1053
I1058
sVwidth
p1054
I1920
ssVname
p1055
VTelnet Options
p1056
sVgeometry
p1057
(dp1058
g101
I0
sg102
I0
sVheight
p1059
I600
sVwidth
p1060
I800
ssVfloating_nodes
p1061
(lp1062
sVoutput
p1063
VeDP1
p1064
sa(dp1065
Vwindow_properties
p1066
(dp1067
Vinstance
p1068
Vvimb
p1069
sVtransient_for
p1070
NsVwindow_role
p1071
VVimb
p1072
sVclass
p1073
VVimb
p1074
sVtitle
p1075
VSearch  telnet  GitHub
p1076
ssVfullscreen_mode
p1077
I0
sVorientation
p1078
Vnone
p1079
sg494
S'vimb'
p1080
sVfocus
p1081
(lp1082
sVsticky
p1083
I00
sVurgent
p1084
I00
sVlast_split_layout
p1085
Vsplith
p1086
sVfloating
p1087
Vauto_off
p1088
sVborder
p1089
Vpixel
p1090
sVid
p1091
I94779451100032
sVcurrent_border_width
p1092
I1
sVlayout
p1093
Vsplith
p1094
sVpercent
p1095
F0.08333333333333336
sVworkspace_layout
p1096
Vdefault
p1097
sVwindow
p1098
I58720259
sVnodes
p1099
(lp1100
sVtype
p1101
Vcon
p1102
sVdeco_rect
p1103
(dp1104
g101
I0
sg102
I1440
sVheight
p1105
I22
sVwidth
p1106
I160
ssVswallows
p1107
(lp1108
sVfocused
p1109
I00
sVscratchpad_state
p1110
Vnone
p1111
sVrect
p1112
(dp1113
g101
I22
sg102
I0
sVheight
p1114
I1058
sVwidth
p1115
I1920
ssVwindow_rect
p1116
(dp1117
g101
I0
sg102
I0
sVheight
p1118
I1058
sVwidth
p1119
I1920
ssVname
p1120
VSearch  telnet  GitHub
p1121
sVgeometry
p1122
(dp1123
g101
I0
sg102
I0
sVheight
p1124
I600
sVwidth
p1125
I800
ssVfloating_nodes
p1126
(lp1127
sVoutput
p1128
VeDP1
p1129
sa(dp1130
Vwindow_properties
p1131
(dp1132
Vinstance
p1133
Vvimb
p1134
sVtransient_for
p1135
NsVwindow_role
p1136
VVimb
p1137
sVclass
p1138
VVimb
p1139
sVtitle
p1140
VSecurity hacker - Wikipedia
p1141
ssVfullscreen_mode
p1142
I0
sVorientation
p1143
Vnone
p1144
sg494
S'vimb'
p1145
sVfocus
p1146
(lp1147
sVsticky
p1148
I00
sVurgent
p1149
I00
sVlast_split_layout
p1150
Vsplith
p1151
sVfloating
p1152
Vauto_off
p1153
sVborder
p1154
Vpixel
p1155
sVid
p1156
I94779451103312
sVcurrent_border_width
p1157
I1
sVlayout
p1158
Vsplith
p1159
sVpercent
p1160
F0.08333333333333336
sVworkspace_layout
p1161
Vdefault
p1162
sVwindow
p1163
I52428803
sVnodes
p1164
(lp1165
sVtype
p1166
Vcon
p1167
sVdeco_rect
p1168
(dp1169
g101
I0
sg102
I1600
sVheight
p1170
I22
sVwidth
p1171
I160
ssVswallows
p1172
(lp1173
sVfocused
p1174
I00
sVscratchpad_state
p1175
Vnone
p1176
sVrect
p1177
(dp1178
g101
I22
sg102
I0
sVheight
p1179
I1058
sVwidth
p1180
I1920
ssVwindow_rect
p1181
(dp1182
g101
I0
sg102
I0
sVheight
p1183
I1058
sVwidth
p1184
I1920
ssVname
p1185
VSecurity hacker - Wikipedia
p1186
sVgeometry
p1187
(dp1188
g101
I0
sg102
I0
sVheight
p1189
I600
sVwidth
p1190
I800
ssVfloating_nodes
p1191
(lp1192
sVoutput
p1193
VeDP1
p1194
sa(dp1195
Vwindow_properties
p1196
(dp1197
Vinstance
p1198
Vvimb
p1199
sVtransient_for
p1200
NsVwindow_role
p1201
VVimb
p1202
sVclass
p1203
VVimb
p1204
sVtitle
p1205
VInternet Standard - Wikipedia
p1206
ssVfullscreen_mode
p1207
I0
sVorientation
p1208
Vnone
p1209
sg494
S'vimb'
p1210
sVfocus
p1211
(lp1212
sVsticky
p1213
I00
sVurgent
p1214
I00
sVlast_split_layout
p1215
Vsplith
p1216
sVfloating
p1217
Vauto_off
p1218
sVborder
p1219
Vpixel
p1220
sVid
p1221
I94779451106592
sVcurrent_border_width
p1222
I1
sVlayout
p1223
Vsplith
p1224
sVpercent
p1225
F0.08333333333333336
sVworkspace_layout
p1226
Vdefault
p1227
sVwindow
p1228
I60817411
sVnodes
p1229
(lp1230
sVtype
p1231
Vcon
p1232
sVdeco_rect
p1233
(dp1234
g101
I0
sg102
I1760
sVheight
p1235
I22
sVwidth
p1236
I160
ssVswallows
p1237
(lp1238
sVfocused
p1239
I00
sVscratchpad_state
p1240
Vnone
p1241
sVrect
p1242
(dp1243
g101
I22
sg102
I0
sVheight
p1244
I1058
sVwidth
p1245
I1920
ssVwindow_rect
p1246
(dp1247
g101
I0
sg102
I0
sVheight
p1248
I1058
sVwidth
p1249
I1920
ssVname
p1250
VInternet Standard - Wikipedia
p1251
sVgeometry
p1252
(dp1253
g101
I0
sg102
I0
sVheight
p1254
I600
sVwidth
p1255
I800
ssVfloating_nodes
p1256
(lp1257
sVoutput
p1258
VeDP1
p1259
sasVtype
p1260
Vcon
p1261
sVdeco_rect
p1262
(dp1263
g101
I0
sg102
I0
sVheight
p1264
I0
sVwidth
p1265
I0
ssVswallows
p1266
(lp1267
sVfocused
p1268
I00
sVscratchpad_state
p1269
Vnone
p1270
sVrect
p1271
(dp1272
g101
I0
sg102
I0
sVheight
p1273
I1080
sVwidth
p1274
I1920
ssVwindow_rect
p1275
(dp1276
g101
I0
sg102
I0
sVheight
p1277
I0
sVwidth
p1278
I0
ssVname
p1279
NsVgeometry
p1280
(dp1281
g101
I0
sg102
I0
sVheight
p1282
I0
sVwidth
p1283
I0
ssVfloating_nodes
p1284
(lp1285
sVoutput
p1286
VeDP1
p1287
sasVtype
p1288
Vcon
p1289
sVdeco_rect
p1290
(dp1291
g101
I0
sg102
I0
sVheight
p1292
I0
sVwidth
p1293
I0
ssVswallows
p1294
(lp1295
sVfocused
p1296
I00
sVscratchpad_state
p1297
Vnone
p1298
sVrect
p1299
(dp1300
g101
I0
sg102
I0
sVheight
p1301
I1080
sVwidth
p1302
I1920
ssVwindow_rect
p1303
(dp1304
g101
I0
sg102
I0
sVheight
p1305
I0
sVwidth
p1306
I0
ssVname
p1307
NsVgeometry
p1308
(dp1309
g101
I0
sg102
I0
sVheight
p1310
I0
sVwidth
p1311
I0
ssVfloating_nodes
p1312
(lp1313
sVoutput
p1314
VeDP1
p1315
sasVtype
p1316
Vworkspace
p1317
sVdeco_rect
p1318
(dp1319
g101
I0
sg102
I0
sVheight
p1320
I0
sVwidth
p1321
I0
ssVswallows
p1322
(lp1323
sVfocused
p1324
I00
sVscratchpad_state
p1325
Vnone
p1326
sVrect
p1327
(dp1328
g101
I0
sg102
I0
sVheight
p1329
I1080
sVwidth
p1330
I1920
ssVwindow_rect
p1331
(dp1332
g101
I0
sg102
I0
sVheight
p1333
I0
sVwidth
p1334
I0
ssVname
p1335
V1
p1336
sVgeometry
p1337
(dp1338
g101
I0
sg102
I0
sVheight
p1339
I0
sVwidth
p1340
I0
ssVgaps
p1341
(dp1342
Vouter
p1343
I0
sVinner
p1344
I0
ssVfloating_nodes
p1345
(lp1346
sVoutput
p1347
VeDP1
p1348
sa(dp1349
Vfullscreen_mode
p1350
I0
sVorientation
p1351
Vhorizontal
p1352
sVfocus
p1353
(lp1354
I94779451118240
asVsticky
p1355
I00
sVurgent
p1356
I00
sVnum
p1357
I4
sVlast_split_layout
p1358
Vsplith
p1359
sVfloating
p1360
Vauto_off
p1361
sVborder
p1362
Vnormal
p1363
sVid
p1364
I94779451117744
sVcurrent_border_width
p1365
I-1
sVlayout
p1366
Vsplith
p1367
sVpercent
p1368
F0.3333333333333333
sVworkspace_layout
p1369
Vdefault
p1370
sVwindow
p1371
NsVnodes
p1372
(lp1373
(dp1374
Vfullscreen_mode
p1375
I0
sVorientation
p1376
Vvertical
p1377
sVfocus
p1378
(lp1379
I94779451118704
asVsticky
p1380
I00
sVurgent
p1381
I00
sVlast_split_layout
p1382
Vsplitv
p1383
sVfloating
p1384
Vauto_off
p1385
sVborder
p1386
Vnormal
p1387
sVid
p1388
I94779451118240
sVcurrent_border_width
p1389
I-1
sVlayout
p1390
Vsplitv
p1391
sVpercent
p1392
F1.0
sVworkspace_layout
p1393
Vdefault
p1394
sVwindow
p1395
NsVnodes
p1396
(lp1397
(dp1398
Vfullscreen_mode
p1399
I0
sVorientation
p1400
Vhorizontal
p1401
sVfocus
p1402
(lp1403
I94779451158192
aI94779451142576
aI94779451138816
aI94779451167808
aI94779451171088
aI94779451174352
aI94779451135552
aI94779451132288
aI94779451128992
aI94779451125728
aI94779451122464
aI94779451177632
aI94779451180976
aI94779451119168
asVsticky
p1404
I00
sVurgent
p1405
I00
sVlast_split_layout
p1406
Vsplith
p1407
sVfloating
p1408
Vauto_off
p1409
sVborder
p1410
Vnormal
p1411
sVid
p1412
I94779451118704
sVcurrent_border_width
p1413
I-1
sVlayout
p1414
Vtabbed
p1415
sVpercent
p1416
F1.0
sVworkspace_layout
p1417
Vdefault
p1418
sVwindow
p1419
NsVnodes
p1420
(lp1421
(dp1422
Vwindow_properties
p1423
(dp1424
Vinstance
p1425
Vvimb
p1426
sVtransient_for
p1427
NsVwindow_role
p1428
VVimb
p1429
sVclass
p1430
VVimb
p1431
sVtitle
p1432
Vskicka/README.md at master  google/skicka  GitHub
p1433
ssVfullscreen_mode
p1434
I0
sVorientation
p1435
Vnone
p1436
sg494
S'vimb'
p1437
sVfocus
p1438
(lp1439
sVsticky
p1440
I00
sVurgent
p1441
I00
sVlast_split_layout
p1442
Vsplith
p1443
sVfloating
p1444
Vauto_off
p1445
sVborder
p1446
Vpixel
p1447
sVid
p1448
I94779451119168
sVcurrent_border_width
p1449
I1
sVlayout
p1450
Vsplith
p1451
sVpercent
p1452
F0.07142857142857144
sVworkspace_layout
p1453
Vdefault
p1454
sVwindow
p1455
I54525955
sVnodes
p1456
(lp1457
sVtype
p1458
Vcon
p1459
sVdeco_rect
p1460
(dp1461
g101
I0
sg102
I0
sVheight
p1462
I22
sVwidth
p1463
I137
ssVswallows
p1464
(lp1465
sVfocused
p1466
I00
sVscratchpad_state
p1467
Vnone
p1468
sVrect
p1469
(dp1470
g101
I22
sg102
I0
sVheight
p1471
I1058
sVwidth
p1472
I1920
ssVwindow_rect
p1473
(dp1474
g101
I0
sg102
I1
sVheight
p1475
I1057
sVwidth
p1476
I1918
ssVname
p1477
Vskicka/README.md at master  google/skicka  GitHub
p1478
sVgeometry
p1479
(dp1480
g101
I0
sg102
I0
sVheight
p1481
I600
sVwidth
p1482
I800
ssVfloating_nodes
p1483
(lp1484
sVoutput
p1485
VeDP1
p1486
sa(dp1487
Vwindow_properties
p1488
(dp1489
Vinstance
p1490
Vtermite
p1491
sVtransient_for
p1492
NsVclass
p1493
VTermite
p1494
sVtitle
p1495
Vyaourt -Ss social
p1496
ssVfullscreen_mode
p1497
I0
sVorientation
p1498
Vnone
p1499
sg494
S'termite'
p1500
sVfocus
p1501
(lp1502
sVsticky
p1503
I00
sVurgent
p1504
I00
sVlast_split_layout
p1505
Vsplith
p1506
sVfloating
p1507
Vauto_off
p1508
sVborder
p1509
Vpixel
p1510
sVid
p1511
I94779451122464
sVcurrent_border_width
p1512
I1
sVlayout
p1513
Vsplith
p1514
sVpercent
p1515
F0.07142857142857144
sVworkspace_layout
p1516
Vdefault
p1517
sVwindow
p1518
I73400323
sVnodes
p1519
(lp1520
sVtype
p1521
Vcon
p1522
sVdeco_rect
p1523
(dp1524
g101
I0
sg102
I137
sVheight
p1525
I22
sVwidth
p1526
I137
ssVswallows
p1527
(lp1528
sVfocused
p1529
I00
sVscratchpad_state
p1530
Vnone
p1531
sVrect
p1532
(dp1533
g101
I22
sg102
I0
sVheight
p1534
I1058
sVwidth
p1535
I1920
ssVwindow_rect
p1536
(dp1537
g101
I0
sg102
I1
sVheight
p1538
I1057
sVwidth
p1539
I1918
ssVname
p1540
Vyaourt -Ss social
p1541
sVgeometry
p1542
(dp1543
g101
I0
sg102
I0
sVheight
p1544
I698
sVwidth
p1545
I1122
ssVfloating_nodes
p1546
(lp1547
sVoutput
p1548
VeDP1
p1549
sa(dp1550
Vwindow_properties
p1551
(dp1552
Vinstance
p1553
Vtermite
p1554
sVtransient_for
p1555
NsVclass
p1556
VTermite
p1557
sVtitle
p1558
Vyaourt -Ss telnet
p1559
ssVfullscreen_mode
p1560
I0
sVorientation
p1561
Vnone
p1562
sg494
S'termite'
p1563
sVfocus
p1564
(lp1565
sVsticky
p1566
I00
sVurgent
p1567
I00
sVlast_split_layout
p1568
Vsplith
p1569
sVfloating
p1570
Vauto_off
p1571
sVborder
p1572
Vpixel
p1573
sVid
p1574
I94779451125728
sVcurrent_border_width
p1575
I1
sVlayout
p1576
Vsplith
p1577
sVpercent
p1578
F0.07142857142857144
sVworkspace_layout
p1579
Vdefault
p1580
sVwindow
p1581
I29360131
sVnodes
p1582
(lp1583
sVtype
p1584
Vcon
p1585
sVdeco_rect
p1586
(dp1587
g101
I0
sg102
I274
sVheight
p1588
I22
sVwidth
p1589
I137
ssVswallows
p1590
(lp1591
sVfocused
p1592
I00
sVscratchpad_state
p1593
Vnone
p1594
sVrect
p1595
(dp1596
g101
I22
sg102
I0
sVheight
p1597
I1058
sVwidth
p1598
I1920
ssVwindow_rect
p1599
(dp1600
g101
I0
sg102
I1
sVheight
p1601
I1057
sVwidth
p1602
I1918
ssVname
p1603
Vyaourt -Ss telnet
p1604
sVgeometry
p1605
(dp1606
g101
I0
sg102
I0
sVheight
p1607
I698
sVwidth
p1608
I1122
ssVfloating_nodes
p1609
(lp1610
sVoutput
p1611
VeDP1
p1612
sa(dp1613
Vwindow_properties
p1614
(dp1615
Vinstance
p1616
Vvimb
p1617
sVtransient_for
p1618
NsVwindow_role
p1619
VVimb
p1620
sVclass
p1621
VVimb
p1622
sVtitle
p1623
Vfully save and restore session i3 at DuckDuckGo
p1624
ssVfullscreen_mode
p1625
I0
sVorientation
p1626
Vnone
p1627
sg494
S'vimb'
p1628
sVfocus
p1629
(lp1630
sVsticky
p1631
I00
sVurgent
p1632
I00
sVlast_split_layout
p1633
Vsplith
p1634
sVfloating
p1635
Vauto_off
p1636
sVborder
p1637
Vpixel
p1638
sVid
p1639
I94779451128992
sVcurrent_border_width
p1640
I1
sVlayout
p1641
Vsplith
p1642
sVpercent
p1643
F0.07142857142857144
sVworkspace_layout
p1644
Vdefault
p1645
sVwindow
p1646
I79691779
sVnodes
p1647
(lp1648
sVtype
p1649
Vcon
p1650
sVdeco_rect
p1651
(dp1652
g101
I0
sg102
I411
sVheight
p1653
I22
sVwidth
p1654
I137
ssVswallows
p1655
(lp1656
sVfocused
p1657
I00
sVscratchpad_state
p1658
Vnone
p1659
sVrect
p1660
(dp1661
g101
I22
sg102
I0
sVheight
p1662
I1058
sVwidth
p1663
I1920
ssVwindow_rect
p1664
(dp1665
g101
I0
sg102
I1
sVheight
p1666
I1057
sVwidth
p1667
I1918
ssVname
p1668
Vfully save and restore session i3 at DuckDuckGo
p1669
sVgeometry
p1670
(dp1671
g101
I0
sg102
I0
sVheight
p1672
I600
sVwidth
p1673
I800
ssVfloating_nodes
p1674
(lp1675
sVoutput
p1676
VeDP1
p1677
sa(dp1678
Vwindow_properties
p1679
(dp1680
Vinstance
p1681
Vvimb
p1682
sVtransient_for
p1683
NsVwindow_role
p1684
VVimb
p1685
sVclass
p1686
VVimb
p1687
sVtitle
p1688
Vi3: Layout saving in i3
p1689
ssVfullscreen_mode
p1690
I0
sVorientation
p1691
Vnone
p1692
sg494
S'vimb'
p1693
sVfocus
p1694
(lp1695
sVsticky
p1696
I00
sVurgent
p1697
I00
sVlast_split_layout
p1698
Vsplith
p1699
sVfloating
p1700
Vauto_off
p1701
sVborder
p1702
Vpixel
p1703
sVid
p1704
I94779451132288
sVcurrent_border_width
p1705
I1
sVlayout
p1706
Vsplith
p1707
sVpercent
p1708
F0.07142857142857144
sVworkspace_layout
p1709
Vdefault
p1710
sVwindow
p1711
I111149059
sVnodes
p1712
(lp1713
sVtype
p1714
Vcon
p1715
sVdeco_rect
p1716
(dp1717
g101
I0
sg102
I548
sVheight
p1718
I22
sVwidth
p1719
I137
ssVswallows
p1720
(lp1721
sVfocused
p1722
I00
sVscratchpad_state
p1723
Vnone
p1724
sVrect
p1725
(dp1726
g101
I22
sg102
I0
sVheight
p1727
I1058
sVwidth
p1728
I1920
ssVwindow_rect
p1729
(dp1730
g101
I0
sg102
I1
sVheight
p1731
I1057
sVwidth
p1732
I1918
ssVname
p1733
Vi3: Layout saving in i3
p1734
sVgeometry
p1735
(dp1736
g101
I0
sg102
I0
sVheight
p1737
I600
sVwidth
p1738
I800
ssVfloating_nodes
p1739
(lp1740
sVoutput
p1741
VeDP1
p1742
sa(dp1743
Vwindow_properties
p1744
(dp1745
Vinstance
p1746
Vtermite
p1747
sVtransient_for
p1748
NsVclass
p1749
VTermite
p1750
sVtitle
p1751
Vyaourt hibernate
p1752
ssVfullscreen_mode
p1753
I0
sVorientation
p1754
Vnone
p1755
sg494
S'termite'
p1756
sVfocus
p1757
(lp1758
sVsticky
p1759
I00
sVurgent
p1760
I00
sVlast_split_layout
p1761
Vsplith
p1762
sVfloating
p1763
Vauto_off
p1764
sVborder
p1765
Vpixel
p1766
sVid
p1767
I94779451135552
sVcurrent_border_width
p1768
I1
sVlayout
p1769
Vsplith
p1770
sVpercent
p1771
F0.07142857142857144
sVworkspace_layout
p1772
Vdefault
p1773
sVwindow
p1774
I119537667
sVnodes
p1775
(lp1776
sVtype
p1777
Vcon
p1778
sVdeco_rect
p1779
(dp1780
g101
I0
sg102
I685
sVheight
p1781
I22
sVwidth
p1782
I137
ssVswallows
p1783
(lp1784
sVfocused
p1785
I00
sVscratchpad_state
p1786
Vnone
p1787
sVrect
p1788
(dp1789
g101
I22
sg102
I0
sVheight
p1790
I1058
sVwidth
p1791
I1920
ssVwindow_rect
p1792
(dp1793
g101
I0
sg102
I1
sVheight
p1794
I1057
sVwidth
p1795
I1918
ssVname
p1796
Vyaourt hibernate
p1797
sVgeometry
p1798
(dp1799
g101
I0
sg102
I0
sVheight
p1800
I698
sVwidth
p1801
I1122
ssVfloating_nodes
p1802
(lp1803
sVoutput
p1804
VeDP1
p1805
sa(dp1806
Vwindow_properties
p1807
(dp1808
Vinstance
p1809
Vvimb
p1810
sVtransient_for
p1811
NsVwindow_role
p1812
VVimb
p1813
sVclass
p1814
VVimb
p1815
sVtitle
p1816
Vwhy you use tmux when already using i3 ? : i3wm
p1817
ssVfullscreen_mode
p1818
I0
sVorientation
p1819
Vnone
p1820
sg494
S'vimb'
p1821
sVfocus
p1822
(lp1823
sVsticky
p1824
I00
sVurgent
p1825
I00
sVlast_split_layout
p1826
Vsplith
p1827
sVfloating
p1828
Vauto_off
p1829
sVborder
p1830
Vpixel
p1831
sVid
p1832
I94779451138816
sVcurrent_border_width
p1833
I1
sVlayout
p1834
Vsplith
p1835
sVpercent
p1836
F0.07142857142857144
sVworkspace_layout
p1837
Vdefault
p1838
sVwindow
p1839
I113246211
sVnodes
p1840
(lp1841
sVtype
p1842
Vcon
p1843
sVdeco_rect
p1844
(dp1845
g101
I0
sg102
I822
sVheight
p1846
I22
sVwidth
p1847
I137
ssVswallows
p1848
(lp1849
sVfocused
p1850
I00
sVscratchpad_state
p1851
Vnone
p1852
sVrect
p1853
(dp1854
g101
I22
sg102
I0
sVheight
p1855
I1058
sVwidth
p1856
I1920
ssVwindow_rect
p1857
(dp1858
g101
I0
sg102
I1
sVheight
p1859
I1057
sVwidth
p1860
I1918
ssVname
p1861
Vwhy you use tmux when already using i3 ? : i3wm
p1862
sVgeometry
p1863
(dp1864
g101
I0
sg102
I0
sVheight
p1865
I600
sVwidth
p1866
I800
ssVfloating_nodes
p1867
(lp1868
sVoutput
p1869
VeDP1
p1870
sa(dp1871
Vwindow_properties
p1872
(dp1873
Vinstance
p1874
Vvimb
p1875
sVtransient_for
p1876
NsVwindow_role
p1877
VVimb
p1878
sVclass
p1879
VVimb
p1880
sVtitle
p1881
VGitHub - schischi/xcwd: A simple tool which print the current working directory of the currently focused window
p1882
ssVfullscreen_mode
p1883
I0
sVorientation
p1884
Vnone
p1885
sg494
S'vimb'
p1886
sVfocus
p1887
(lp1888
sVsticky
p1889
I00
sVurgent
p1890
I00
sVlast_split_layout
p1891
Vsplith
p1892
sVfloating
p1893
Vauto_off
p1894
sVborder
p1895
Vpixel
p1896
sVid
p1897
I94779451142576
sVcurrent_border_width
p1898
I1
sVlayout
p1899
Vsplith
p1900
sVpercent
p1901
F0.07142857142857144
sVworkspace_layout
p1902
Vdefault
p1903
sVwindow
p1904
I121634819
sVnodes
p1905
(lp1906
sVtype
p1907
Vcon
p1908
sVdeco_rect
p1909
(dp1910
g101
I0
sg102
I959
sVheight
p1911
I22
sVwidth
p1912
I137
ssVswallows
p1913
(lp1914
sVfocused
p1915
I00
sVscratchpad_state
p1916
Vnone
p1917
sVrect
p1918
(dp1919
g101
I22
sg102
I0
sVheight
p1920
I1058
sVwidth
p1921
I1920
ssVwindow_rect
p1922
(dp1923
g101
I0
sg102
I1
sVheight
p1924
I1057
sVwidth
p1925
I1918
ssVname
p1926
VGitHub - schischi/xcwd: A simple tool which print the current working directory of the currently focused window
p1927
sVgeometry
p1928
(dp1929
g101
I0
sg102
I0
sVheight
p1930
I600
sVwidth
p1931
I800
ssVfloating_nodes
p1932
(lp1933
sVoutput
p1934
VeDP1
p1935
sa(dp1936
Vfullscreen_mode
p1937
I0
sVorientation
p1938
Vvertical
p1939
sVfocus
p1940
(lp1941
I94779451158656
aI94779451161920
asVsticky
p1942
I00
sVurgent
p1943
I00
sVlast_split_layout
p1944
Vsplitv
p1945
sVfloating
p1946
Vauto_off
p1947
sVborder
p1948
Vnormal
p1949
sVid
p1950
I94779451158192
sVcurrent_border_width
p1951
I-1
sVlayout
p1952
Vsplitv
p1953
sVpercent
p1954
F0.07142857142857144
sVworkspace_layout
p1955
Vdefault
p1956
sVwindow
p1957
NsVnodes
p1958
(lp1959
(dp1960
Vwindow_properties
p1961
(dp1962
Vinstance
p1963
Vtermite
p1964
sVtransient_for
p1965
NsVclass
p1966
VTermite
p1967
sVtitle
p1968
Vnikd@arch-omen: /home
p1969
ssVfullscreen_mode
p1970
I0
sVorientation
p1971
Vnone
p1972
sg494
S'termite'
p1973
sVfocus
p1974
(lp1975
sVsticky
p1976
I00
sVurgent
p1977
I00
sVlast_split_layout
p1978
Vsplith
p1979
sVfloating
p1980
Vauto_off
p1981
sVborder
p1982
Vpixel
p1983
sVid
p1984
I94779451158656
sVcurrent_border_width
p1985
I1
sVlayout
p1986
Vsplith
p1987
sVpercent
p1988
F0.5
sVworkspace_layout
p1989
Vdefault
p1990
sVwindow
p1991
I130023427
sVnodes
p1992
(lp1993
sVtype
p1994
Vcon
p1995
sVdeco_rect
p1996
(dp1997
g101
I0
sg102
I0
sVheight
p1998
I0
sVwidth
p1999
I0
ssVswallows
p2000
(lp2001
sVfocused
p2002
I00
sVscratchpad_state
p2003
Vnone
p2004
sVrect
p2005
(dp2006
g101
I22
sg102
I0
sVheight
p2007
I529
sVwidth
p2008
I1920
ssVwindow_rect
p2009
(dp2010
g101
I1
sg102
I1
sVheight
p2011
I527
sVwidth
p2012
I1918
ssVname
p2013
Vnikd@arch-omen: /home
p2014
sVgeometry
p2015
(dp2016
g101
I0
sg102
I0
sVheight
p2017
I698
sVwidth
p2018
I1122
ssVfloating_nodes
p2019
(lp2020
sVoutput
p2021
VeDP1
p2022
sa(dp2023
Vwindow_properties
p2024
(dp2025
Vinstance
p2026
Vtermite
p2027
sVtransient_for
p2028
NsVclass
p2029
VTermite
p2030
sVtitle
p2031
Vyaourt i3
p2032
ssVfullscreen_mode
p2033
I0
sVorientation
p2034
Vnone
p2035
sg494
S'termite'
p2036
sVfocus
p2037
(lp2038
sVsticky
p2039
I00
sVurgent
p2040
I00
sVlast_split_layout
p2041
Vsplith
p2042
sVfloating
p2043
Vauto_off
p2044
sVborder
p2045
Vpixel
p2046
sVid
p2047
I94779451161920
sVcurrent_border_width
p2048
I1
sVlayout
p2049
Vsplith
p2050
sVpercent
p2051
F0.5
sVworkspace_layout
p2052
Vdefault
p2053
sVwindow
p2054
I138412035
sVnodes
p2055
(lp2056
sVtype
p2057
Vcon
p2058
sVdeco_rect
p2059
(dp2060
g101
I0
sg102
I0
sVheight
p2061
I0
sVwidth
p2062
I0
ssVswallows
p2063
(lp2064
sVfocused
p2065
I00
sVscratchpad_state
p2066
Vnone
p2067
sVrect
p2068
(dp2069
g101
I551
sg102
I0
sVheight
p2070
I529
sVwidth
p2071
I1920
ssVwindow_rect
p2072
(dp2073
g101
I1
sg102
I1
sVheight
p2074
I527
sVwidth
p2075
I1918
ssVname
p2076
Vyaourt i3
p2077
sVgeometry
p2078
(dp2079
g101
I0
sg102
I0
sVheight
p2080
I698
sVwidth
p2081
I1122
ssVfloating_nodes
p2082
(lp2083
sVoutput
p2084
VeDP1
p2085
sasVtype
p2086
Vcon
p2087
sVdeco_rect
p2088
(dp2089
g101
I0
sg102
I1096
sVheight
p2090
I22
sVwidth
p2091
I137
ssVswallows
p2092
(lp2093
sVfocused
p2094
I00
sVscratchpad_state
p2095
Vnone
p2096
sVrect
p2097
(dp2098
g101
I22
sg102
I0
sVheight
p2099
I1058
sVwidth
p2100
I1920
ssVwindow_rect
p2101
(dp2102
g101
I0
sg102
I0
sVheight
p2103
I0
sVwidth
p2104
I0
ssVname
p2105
NsVgeometry
p2106
(dp2107
g101
I0
sg102
I0
sVheight
p2108
I0
sVwidth
p2109
I0
ssVfloating_nodes
p2110
(lp2111
sVoutput
p2112
VeDP1
p2113
sa(dp2114
Vwindow_properties
p2115
(dp2116
Vinstance
p2117
Vtermite
p2118
sVtransient_for
p2119
NsVclass
p2120
VTermite
p2121
sVtitle
p2122
Vnikd@arch-omen: /usr/share
p2123
ssVfullscreen_mode
p2124
I0
sVorientation
p2125
Vnone
p2126
sg494
S'termite'
p2127
sVfocus
p2128
(lp2129
sVsticky
p2130
I00
sVurgent
p2131
I00
sVlast_split_layout
p2132
Vsplith
p2133
sVfloating
p2134
Vauto_off
p2135
sVborder
p2136
Vpixel
p2137
sVid
p2138
I94779451167808
sVcurrent_border_width
p2139
I1
sVlayout
p2140
Vsplith
p2141
sVpercent
p2142
F0.07142857142857145
sVworkspace_layout
p2143
Vdefault
p2144
sVwindow
p2145
I134217731
sVnodes
p2146
(lp2147
sVtype
p2148
Vcon
p2149
sVdeco_rect
p2150
(dp2151
g101
I0
sg102
I1233
sVheight
p2152
I22
sVwidth
p2153
I137
ssVswallows
p2154
(lp2155
sVfocused
p2156
I00
sVscratchpad_state
p2157
Vnone
p2158
sVrect
p2159
(dp2160
g101
I22
sg102
I0
sVheight
p2161
I1058
sVwidth
p2162
I1920
ssVwindow_rect
p2163
(dp2164
g101
I0
sg102
I1
sVheight
p2165
I1057
sVwidth
p2166
I1918
ssVname
p2167
Vnikd@arch-omen: /usr/share
p2168
sVgeometry
p2169
(dp2170
g101
I0
sg102
I0
sVheight
p2171
I698
sVwidth
p2172
I1122
ssVfloating_nodes
p2173
(lp2174
sVoutput
p2175
VeDP1
p2176
sa(dp2177
Vwindow_properties
p2178
(dp2179
Vinstance
p2180
Vvimb
p2181
sVtransient_for
p2182
NsVwindow_role
p2183
VVimb
p2184
sVclass
p2185
VVimb
p2186
sVtitle
p2187
Vi3 - ArchWiki
p2188
ssVfullscreen_mode
p2189
I0
sVorientation
p2190
Vnone
p2191
sg494
S'vimb'
p2192
sVfocus
p2193
(lp2194
sVsticky
p2195
I00
sVurgent
p2196
I00
sVlast_split_layout
p2197
Vsplith
p2198
sVfloating
p2199
Vauto_off
p2200
sVborder
p2201
Vpixel
p2202
sVid
p2203
I94779451171088
sVcurrent_border_width
p2204
I1
sVlayout
p2205
Vsplith
p2206
sVpercent
p2207
F0.07142857142857144
sVworkspace_layout
p2208
Vdefault
p2209
sVwindow
p2210
I85983235
sVnodes
p2211
(lp2212
sVtype
p2213
Vcon
p2214
sVdeco_rect
p2215
(dp2216
g101
I0
sg102
I1370
sVheight
p2217
I22
sVwidth
p2218
I137
ssVswallows
p2219
(lp2220
sVfocused
p2221
I00
sVscratchpad_state
p2222
Vnone
p2223
sVrect
p2224
(dp2225
g101
I22
sg102
I0
sVheight
p2226
I1058
sVwidth
p2227
I1920
ssVwindow_rect
p2228
(dp2229
g101
I0
sg102
I1
sVheight
p2230
I1057
sVwidth
p2231
I1918
ssVname
p2232
Vi3 - ArchWiki
p2233
sVgeometry
p2234
(dp2235
g101
I0
sg102
I0
sVheight
p2236
I600
sVwidth
p2237
I800
ssVfloating_nodes
p2238
(lp2239
sVoutput
p2240
VeDP1
p2241
sa(dp2242
Vwindow_properties
p2243
(dp2244
Vinstance
p2245
Vtermite
p2246
sVtransient_for
p2247
NsVclass
p2248
VTermite
p2249
sVtitle
p2250
Vtermite(1) - (man:) - NVIM
p2251
ssVfullscreen_mode
p2252
I0
sVorientation
p2253
Vnone
p2254
sg494
S'termite'
p2255
sVfocus
p2256
(lp2257
sVsticky
p2258
I00
sVurgent
p2259
I00
sVlast_split_layout
p2260
Vsplith
p2261
sVfloating
p2262
Vauto_off
p2263
sVborder
p2264
Vpixel
p2265
sVid
p2266
I94779451174352
sVcurrent_border_width
p2267
I1
sVlayout
p2268
Vsplith
p2269
sVpercent
p2270
F0.07142857142857144
sVworkspace_layout
p2271
Vdefault
p2272
sVwindow
p2273
I136314883
sVnodes
p2274
(lp2275
sVtype
p2276
Vcon
p2277
sVdeco_rect
p2278
(dp2279
g101
I0
sg102
I1507
sVheight
p2280
I22
sVwidth
p2281
I137
ssVswallows
p2282
(lp2283
sVfocused
p2284
I00
sVscratchpad_state
p2285
Vnone
p2286
sVrect
p2287
(dp2288
g101
I22
sg102
I0
sVheight
p2289
I1058
sVwidth
p2290
I1920
ssVwindow_rect
p2291
(dp2292
g101
I0
sg102
I1
sVheight
p2293
I1057
sVwidth
p2294
I1918
ssVname
p2295
Vtermite(1) - (man:) - NVIM
p2296
sVgeometry
p2297
(dp2298
g101
I0
sg102
I0
sVheight
p2299
I698
sVwidth
p2300
I1122
ssVfloating_nodes
p2301
(lp2302
sVoutput
p2303
VeDP1
p2304
sa(dp2305
Vwindow_properties
p2306
(dp2307
Vinstance
p2308
Vvimb
p2309
sVtransient_for
p2310
NsVwindow_role
p2311
VVimb
p2312
sVclass
p2313
VVimb
p2314
sVtitle
p2315
VGitHub - ashinkarov/i3-extras: Repository to keep patches and extras for i3 window manager.
p2316
ssVfullscreen_mode
p2317
I0
sVorientation
p2318
Vnone
p2319
sg494
S'vimb'
p2320
sVfocus
p2321
(lp2322
sVsticky
p2323
I00
sVurgent
p2324
I00
sVlast_split_layout
p2325
Vsplith
p2326
sVfloating
p2327
Vauto_off
p2328
sVborder
p2329
Vpixel
p2330
sVid
p2331
I94779451177632
sVcurrent_border_width
p2332
I1
sVlayout
p2333
Vsplith
p2334
sVpercent
p2335
F0.07142857142857144
sVworkspace_layout
p2336
Vdefault
p2337
sVwindow
p2338
I125829123
sVnodes
p2339
(lp2340
sVtype
p2341
Vcon
p2342
sVdeco_rect
p2343
(dp2344
g101
I0
sg102
I1644
sVheight
p2345
I22
sVwidth
p2346
I137
ssVswallows
p2347
(lp2348
sVfocused
p2349
I00
sVscratchpad_state
p2350
Vnone
p2351
sVrect
p2352
(dp2353
g101
I22
sg102
I0
sVheight
p2354
I1058
sVwidth
p2355
I1920
ssVwindow_rect
p2356
(dp2357
g101
I0
sg102
I1
sVheight
p2358
I1057
sVwidth
p2359
I1918
ssVname
p2360
VGitHub - ashinkarov/i3-extras: Repository to keep patches and extras for i3 window manager.
p2361
sVgeometry
p2362
(dp2363
g101
I0
sg102
I0
sVheight
p2364
I600
sVwidth
p2365
I800
ssVfloating_nodes
p2366
(lp2367
sVoutput
p2368
VeDP1
p2369
sa(dp2370
Vwindow_properties
p2371
(dp2372
Vinstance
p2373
Vtermite
p2374
sVtransient_for
p2375
NsVclass
p2376
VTermite
p2377
sVtitle
p2378
Vyaourt -Ss cwd
p2379
ssVfullscreen_mode
p2380
I0
sVorientation
p2381
Vnone
p2382
sg494
S'termite'
p2383
sVfocus
p2384
(lp2385
sVsticky
p2386
I00
sVurgent
p2387
I00
sVlast_split_layout
p2388
Vsplith
p2389
sVfloating
p2390
Vauto_off
p2391
sVborder
p2392
Vpixel
p2393
sVid
p2394
I94779451180976
sVcurrent_border_width
p2395
I1
sVlayout
p2396
Vsplith
p2397
sVpercent
p2398
F0.07142857142857144
sVworkspace_layout
p2399
Vdefault
p2400
sVwindow
p2401
I16777219
sVnodes
p2402
(lp2403
sVtype
p2404
Vcon
p2405
sVdeco_rect
p2406
(dp2407
g101
I0
sg102
I1781
sVheight
p2408
I22
sVwidth
p2409
I139
ssVswallows
p2410
(lp2411
sVfocused
p2412
I00
sVscratchpad_state
p2413
Vnone
p2414
sVrect
p2415
(dp2416
g101
I22
sg102
I0
sVheight
p2417
I1058
sVwidth
p2418
I1920
ssVwindow_rect
p2419
(dp2420
g101
I0
sg102
I1
sVheight
p2421
I1057
sVwidth
p2422
I1918
ssVname
p2423
Vyaourt -Ss cwd
p2424
sVgeometry
p2425
(dp2426
g101
I0
sg102
I0
sVheight
p2427
I698
sVwidth
p2428
I1122
ssVfloating_nodes
p2429
(lp2430
sVoutput
p2431
VeDP1
p2432
sasVtype
p2433
Vcon
p2434
sVdeco_rect
p2435
(dp2436
g101
I0
sg102
I0
sVheight
p2437
I0
sVwidth
p2438
I0
ssVswallows
p2439
(lp2440
sVfocused
p2441
I00
sVscratchpad_state
p2442
Vnone
p2443
sVrect
p2444
(dp2445
g101
I0
sg102
I0
sVheight
p2446
I1080
sVwidth
p2447
I1920
ssVwindow_rect
p2448
(dp2449
g101
I0
sg102
I0
sVheight
p2450
I0
sVwidth
p2451
I0
ssVname
p2452
NsVgeometry
p2453
(dp2454
g101
I0
sg102
I0
sVheight
p2455
I0
sVwidth
p2456
I0
ssVfloating_nodes
p2457
(lp2458
sVoutput
p2459
VeDP1
p2460
sasVtype
p2461
Vcon
p2462
sVdeco_rect
p2463
(dp2464
g101
I0
sg102
I0
sVheight
p2465
I0
sVwidth
p2466
I0
ssVswallows
p2467
(lp2468
sVfocused
p2469
I00
sVscratchpad_state
p2470
Vnone
p2471
sVrect
p2472
(dp2473
g101
I0
sg102
I0
sVheight
p2474
I1080
sVwidth
p2475
I1920
ssVwindow_rect
p2476
(dp2477
g101
I0
sg102
I0
sVheight
p2478
I0
sVwidth
p2479
I0
ssVname
p2480
NsVgeometry
p2481
(dp2482
g101
I0
sg102
I0
sVheight
p2483
I0
sVwidth
p2484
I0
ssVfloating_nodes
p2485
(lp2486
sVoutput
p2487
VeDP1
p2488
sasVtype
p2489
Vworkspace
p2490
sVdeco_rect
p2491
(dp2492
g101
I0
sg102
I0
sVheight
p2493
I0
sVwidth
p2494
I0
ssVswallows
p2495
(lp2496
sVfocused
p2497
I00
sVscratchpad_state
p2498
Vnone
p2499
sVrect
p2500
(dp2501
g101
I0
sg102
I0
sVheight
p2502
I1080
sVwidth
p2503
I1920
ssVwindow_rect
p2504
(dp2505
g101
I0
sg102
I0
sVheight
p2506
I0
sVwidth
p2507
I0
ssVname
p2508
V4
p2509
sVgeometry
p2510
(dp2511
g101
I0
sg102
I0
sVheight
p2512
I0
sVwidth
p2513
I0
ssVgaps
p2514
(dp2515
Vouter
p2516
I0
sVinner
p2517
I0
ssVfloating_nodes
p2518
(lp2519
sVoutput
p2520
VeDP1
p2521
sa(dp2522
Vfullscreen_mode
p2523
I1
sVorientation
p2524
Vvertical
p2525
sVfocus
p2526
(lp2527
I94779451723040
aI94779451006672
asVsticky
p2528
I00
sVurgent
p2529
I00
sVnum
p2530
I9
sVlast_split_layout
p2531
Vsplitv
p2532
sVfloating
p2533
Vauto_off
p2534
sVborder
p2535
Vnormal
p2536
sVid
p2537
I94779451142112
sVcurrent_border_width
p2538
I-1
sVlayout
p2539
Vsplitv
p2540
sVpercent
p2541
NsVworkspace_layout
p2542
Vdefault
p2543
sVwindow
p2544
NsVnodes
p2545
(lp2546
(dp2547
Vfullscreen_mode
p2548
I0
sVorientation
p2549
Vhorizontal
p2550
sVfocus
p2551
(lp2552
I94779451145936
aI94779451554800
asVsticky
p2553
I00
sVurgent
p2554
I00
sVlast_split_layout
p2555
Vsplith
p2556
sVfloating
p2557
Vauto_off
p2558
sVborder
p2559
Vnormal
p2560
sVid
p2561
I94779451723040
sVcurrent_border_width
p2562
I-1
sVlayout
p2563
Vsplith
p2564
sVpercent
p2565
F0.5
sVworkspace_layout
p2566
Vdefault
p2567
sVwindow
p2568
NsVnodes
p2569
(lp2570
(dp2571
Vwindow_properties
p2572
(dp2573
Vinstance
p2574
Vtermite
p2575
sVtransient_for
p2576
NsVclass
p2577
VTermite
p2578
sVtitle
p2579
Vi3session save important
p2580
ssVfullscreen_mode
p2581
I0
sVorientation
p2582
Vnone
p2583
sg494
S'termite'
p2584
sVfocus
p2585
(lp2586
sVsticky
p2587
I00
sVurgent
p2588
I00
sVlast_split_layout
p2589
Vsplith
p2590
sVfloating
p2591
Vauto_off
p2592
sVborder
p2593
Vpixel
p2594
sVid
p2595
I94779451145936
sVcurrent_border_width
p2596
I1
sVlayout
p2597
Vsplith
p2598
sVpercent
p2599
F0.5
sVworkspace_layout
p2600
Vdefault
p2601
sVwindow
p2602
I14680067
sVnodes
p2603
(lp2604
sVtype
p2605
Vcon
p2606
sVdeco_rect
p2607
(dp2608
g101
I0
sg102
I0
sVheight
p2609
I0
sVwidth
p2610
I0
ssVswallows
p2611
(lp2612
sVfocused
p2613
I01
sVscratchpad_state
p2614
Vnone
p2615
sVrect
p2616
(dp2617
g101
I0
sg102
I0
sVheight
p2618
I540
sVwidth
p2619
I960
ssVwindow_rect
p2620
(dp2621
g101
I1
sg102
I1
sVheight
p2622
I538
sVwidth
p2623
I958
ssVname
p2624
Vi3session save important
p2625
sVgeometry
p2626
(dp2627
g101
I0
sg102
I0
sVheight
p2628
I698
sVwidth
p2629
I1122
ssVfloating_nodes
p2630
(lp2631
sVoutput
p2632
VeDP1
p2633
sa(dp2634
Vwindow_properties
p2635
(dp2636
Vinstance
p2637
Vtermite
p2638
sVtransient_for
p2639
NsVclass
p2640
VTermite
p2641
sVtitle
p2642
Vnikd@arch-omen: ~
p2643
ssVfullscreen_mode
p2644
I0
sVorientation
p2645
Vnone
p2646
sg494
S'termite'
p2647
sVfocus
p2648
(lp2649
sVsticky
p2650
I00
sVurgent
p2651
I00
sVlast_split_layout
p2652
Vsplith
p2653
sVfloating
p2654
Vauto_off
p2655
sVborder
p2656
Vpixel
p2657
sVid
p2658
I94779451554800
sVcurrent_border_width
p2659
I1
sVlayout
p2660
Vsplith
p2661
sVpercent
p2662
F0.5
sVworkspace_layout
p2663
Vdefault
p2664
sVwindow
p2665
I142606339
sVnodes
p2666
(lp2667
sVtype
p2668
Vcon
p2669
sVdeco_rect
p2670
(dp2671
g101
I0
sg102
I0
sVheight
p2672
I0
sVwidth
p2673
I0
ssVswallows
p2674
(lp2675
sVfocused
p2676
I00
sVscratchpad_state
p2677
Vnone
p2678
sVrect
p2679
(dp2680
g101
I0
sg102
I960
sVheight
p2681
I540
sVwidth
p2682
I960
ssVwindow_rect
p2683
(dp2684
g101
I1
sg102
I1
sVheight
p2685
I538
sVwidth
p2686
I958
ssVname
p2687
Vnikd@arch-omen: ~
p2688
sVgeometry
p2689
(dp2690
g101
I0
sg102
I0
sVheight
p2691
I698
sVwidth
p2692
I1122
ssVfloating_nodes
p2693
(lp2694
sVoutput
p2695
VeDP1
p2696
sasVtype
p2697
Vcon
p2698
sVdeco_rect
p2699
(dp2700
g101
I0
sg102
I0
sVheight
p2701
I0
sVwidth
p2702
I0
ssVswallows
p2703
(lp2704
sVfocused
p2705
I00
sVscratchpad_state
p2706
Vnone
p2707
sVrect
p2708
(dp2709
g101
I0
sg102
I0
sVheight
p2710
I540
sVwidth
p2711
I1920
ssVwindow_rect
p2712
(dp2713
g101
I0
sg102
I0
sVheight
p2714
I0
sVwidth
p2715
I0
ssVname
p2716
NsVgeometry
p2717
(dp2718
g101
I0
sg102
I0
sVheight
p2719
I0
sVwidth
p2720
I0
ssVfloating_nodes
p2721
(lp2722
sVoutput
p2723
VeDP1
p2724
sa(dp2725
Vwindow_properties
p2726
(dp2727
Vinstance
p2728
Vtermite
p2729
sVtransient_for
p2730
NsVclass
p2731
VTermite
p2732
sVtitle
p2733
Vyaourt -Ss session
p2734
ssVfullscreen_mode
p2735
I0
sVorientation
p2736
Vnone
p2737
sg494
S'termite'
p2738
sVfocus
p2739
(lp2740
sVsticky
p2741
I00
sVurgent
p2742
I00
sVlast_split_layout
p2743
Vsplith
p2744
sVfloating
p2745
Vauto_off
p2746
sVborder
p2747
Vpixel
p2748
sVid
p2749
I94779451006672
sVcurrent_border_width
p2750
I1
sVlayout
p2751
Vsplith
p2752
sVpercent
p2753
F0.5
sVworkspace_layout
p2754
Vdefault
p2755
sVwindow
p2756
I140509187
sVnodes
p2757
(lp2758
sVtype
p2759
Vcon
p2760
sVdeco_rect
p2761
(dp2762
g101
I0
sg102
I0
sVheight
p2763
I0
sVwidth
p2764
I0
ssVswallows
p2765
(lp2766
sVfocused
p2767
I00
sVscratchpad_state
p2768
Vnone
p2769
sVrect
p2770
(dp2771
g101
I540
sg102
I0
sVheight
p2772
I540
sVwidth
p2773
I1920
ssVwindow_rect
p2774
(dp2775
g101
I1
sg102
I1
sVheight
p2776
I538
sVwidth
p2777
I1918
ssVname
p2778
Vyaourt -Ss session
p2779
sVgeometry
p2780
(dp2781
g101
I0
sg102
I0
sVheight
p2782
I698
sVwidth
p2783
I1122
ssVfloating_nodes
p2784
(lp2785
sVoutput
p2786
VeDP1
p2787
sasVtype
p2788
Vworkspace
p2789
sVdeco_rect
p2790
(dp2791
g101
I0
sg102
I0
sVheight
p2792
I0
sVwidth
p2793
I0
ssVswallows
p2794
(lp2795
sVfocused
p2796
I00
sVscratchpad_state
p2797
Vnone
p2798
sVrect
p2799
(dp2800
g101
I0
sg102
I0
sVheight
p2801
I1080
sVwidth
p2802
I1920
ssVwindow_rect
p2803
(dp2804
g101
I0
sg102
I0
sVheight
p2805
I0
sVwidth
p2806
I0
ssVname
p2807
V9
p2808
sVgeometry
p2809
(dp2810
g101
I0
sg102
I0
sVheight
p2811
I0
sVwidth
p2812
I0
ssVgaps
p2813
(dp2814
Vouter
p2815
I0
sVinner
p2816
I0
ssVfloating_nodes
p2817
(lp2818
sVoutput
p2819
VeDP1
p2820
sa(dp2821
Vfullscreen_mode
p2822
I0
sVorientation
p2823
Vvertical
p2824
sVfocus
p2825
(lp2826
I94779451192608
asVsticky
p2827
I00
sVurgent
p2828
I00
sVnum
p2829
I10
sVlast_split_layout
p2830
Vsplitv
p2831
sVfloating
p2832
Vauto_off
p2833
sVborder
p2834
Vnormal
p2835
sVid
p2836
I94779451192112
sVcurrent_border_width
p2837
I-1
sVlayout
p2838
Vsplitv
p2839
sVpercent
p2840
F0.3333333333333333
sVworkspace_layout
p2841
Vdefault
p2842
sVwindow
p2843
NsVnodes
p2844
(lp2845
(dp2846
Vfullscreen_mode
p2847
I0
sVorientation
p2848
Vhorizontal
p2849
sVfocus
p2850
(lp2851
I94779451193072
asVsticky
p2852
I00
sVurgent
p2853
I00
sVlast_split_layout
p2854
Vsplith
p2855
sVfloating
p2856
Vauto_off
p2857
sVborder
p2858
Vnormal
p2859
sVid
p2860
I94779451192608
sVcurrent_border_width
p2861
I-1
sVlayout
p2862
Vsplith
p2863
sVpercent
p2864
F1.0
sVworkspace_layout
p2865
Vdefault
p2866
sVwindow
p2867
NsVnodes
p2868
(lp2869
(dp2870
Vfullscreen_mode
p2871
I0
sVorientation
p2872
Vhorizontal
p2873
sVfocus
p2874
(lp2875
I94779451193536
aI94779451196816
aI94779451215872
asVsticky
p2876
I00
sVurgent
p2877
I00
sVlast_split_layout
p2878
Vsplith
p2879
sVfloating
p2880
Vauto_off
p2881
sVborder
p2882
Vnormal
p2883
sVid
p2884
I94779451193072
sVcurrent_border_width
p2885
I-1
sVlayout
p2886
Vtabbed
p2887
sVpercent
p2888
F1.0
sVworkspace_layout
p2889
Vdefault
p2890
sVwindow
p2891
NsVnodes
p2892
(lp2893
(dp2894
Vwindow_properties
p2895
(dp2896
Vinstance
p2897
Vtermite
p2898
sVtransient_for
p2899
NsVclass
p2900
VTermite
p2901
sVtitle
p2902
Vnikd@arch-omen: /sys/devices
p2903
ssVfullscreen_mode
p2904
I0
sVorientation
p2905
Vnone
p2906
sg494
S'termite'
p2907
sVfocus
p2908
(lp2909
sVsticky
p2910
I00
sVurgent
p2911
I00
sVlast_split_layout
p2912
Vsplith
p2913
sVfloating
p2914
Vauto_off
p2915
sVborder
p2916
Vpixel
p2917
sVid
p2918
I94779451193536
sVcurrent_border_width
p2919
I1
sVlayout
p2920
Vsplith
p2921
sVpercent
p2922
F0.3333333333333333
sVworkspace_layout
p2923
Vdefault
p2924
sVwindow
p2925
I12582915
sVnodes
p2926
(lp2927
sVtype
p2928
Vcon
p2929
sVdeco_rect
p2930
(dp2931
g101
I0
sg102
I0
sVheight
p2932
I22
sVwidth
p2933
I640
ssVswallows
p2934
(lp2935
sVfocused
p2936
I00
sVscratchpad_state
p2937
Vnone
p2938
sVrect
p2939
(dp2940
g101
I22
sg102
I0
sVheight
p2941
I1058
sVwidth
p2942
I1920
ssVwindow_rect
p2943
(dp2944
g101
I0
sg102
I0
sVheight
p2945
I1058
sVwidth
p2946
I1920
ssVname
p2947
Vnikd@arch-omen: /sys/devices
p2948
sVgeometry
p2949
(dp2950
g101
I0
sg102
I0
sVheight
p2951
I698
sVwidth
p2952
I1122
ssVfloating_nodes
p2953
(lp2954
sVoutput
p2955
VeDP1
p2956
sa(dp2957
Vfullscreen_mode
p2958
I0
sVorientation
p2959
Vvertical
p2960
sVfocus
p2961
(lp2962
I94779451197280
asVsticky
p2963
I00
sVurgent
p2964
I00
sVlast_split_layout
p2965
Vsplitv
p2966
sVfloating
p2967
Vauto_off
p2968
sVborder
p2969
Vnormal
p2970
sVid
p2971
I94779451196816
sVcurrent_border_width
p2972
I-1
sVlayout
p2973
Vsplitv
p2974
sVpercent
p2975
F0.3333333333333333
sVworkspace_layout
p2976
Vdefault
p2977
sVwindow
p2978
NsVnodes
p2979
(lp2980
(dp2981
Vfullscreen_mode
p2982
I0
sVorientation
p2983
Vvertical
p2984
sVfocus
p2985
(lp2986
I94779451197744
aI94779451201008
asVsticky
p2987
I00
sVurgent
p2988
I00
sVlast_split_layout
p2989
Vsplitv
p2990
sVfloating
p2991
Vauto_off
p2992
sVborder
p2993
Vnormal
p2994
sVid
p2995
I94779451197280
sVcurrent_border_width
p2996
I-1
sVlayout
p2997
Vsplitv
p2998
sVpercent
p2999
F1.0
sVworkspace_layout
p3000
Vdefault
p3001
sVwindow
p3002
NsVnodes
p3003
(lp3004
(dp3005
Vwindow_properties
p3006
(dp3007
Vinstance
p3008
Vtermite
p3009
sVtransient_for
p3010
NsVclass
p3011
VTermite
p3012
sVtitle
p3013
Vyaourt -Ss setuid
p3014
ssVfullscreen_mode
p3015
I0
sVorientation
p3016
Vnone
p3017
sg494
S'termite'
p3018
sVfocus
p3019
(lp3020
sVsticky
p3021
I00
sVurgent
p3022
I00
sVlast_split_layout
p3023
Vsplith
p3024
sVfloating
p3025
Vauto_off
p3026
sVborder
p3027
Vpixel
p3028
sVid
p3029
I94779451197744
sVcurrent_border_width
p3030
I1
sVlayout
p3031
Vsplith
p3032
sVpercent
p3033
F0.5
sVworkspace_layout
p3034
Vdefault
p3035
sVwindow
p3036
I27262979
sVnodes
p3037
(lp3038
sVtype
p3039
Vcon
p3040
sVdeco_rect
p3041
(dp3042
g101
I0
sg102
I0
sVheight
p3043
I0
sVwidth
p3044
I0
ssVswallows
p3045
(lp3046
sVfocused
p3047
I00
sVscratchpad_state
p3048
Vnone
p3049
sVrect
p3050
(dp3051
g101
I22
sg102
I0
sVheight
p3052
I529
sVwidth
p3053
I1920
ssVwindow_rect
p3054
(dp3055
g101
I0
sg102
I0
sVheight
p3056
I529
sVwidth
p3057
I1920
ssVname
p3058
Vyaourt -Ss setuid
p3059
sVgeometry
p3060
(dp3061
g101
I0
sg102
I0
sVheight
p3062
I698
sVwidth
p3063
I1122
ssVfloating_nodes
p3064
(lp3065
sVoutput
p3066
VeDP1
p3067
sa(dp3068
Vfullscreen_mode
p3069
I0
sVorientation
p3070
Vhorizontal
p3071
sVfocus
p3072
(lp3073
I94779451201472
aI94779451204736
asVsticky
p3074
I00
sVurgent
p3075
I00
sVlast_split_layout
p3076
Vsplith
p3077
sVfloating
p3078
Vauto_off
p3079
sVborder
p3080
Vnormal
p3081
sVid
p3082
I94779451201008
sVcurrent_border_width
p3083
I-1
sVlayout
p3084
Vsplith
p3085
sVpercent
p3086
F0.5
sVworkspace_layout
p3087
Vdefault
p3088
sVwindow
p3089
NsVnodes
p3090
(lp3091
(dp3092
Vwindow_properties
p3093
(dp3094
Vinstance
p3095
Vtermite
p3096
sVtransient_for
p3097
NsVclass
p3098
VTermite
p3099
sVtitle
p3100
Vnikd@arch-omen: ~
p3101
ssVfullscreen_mode
p3102
I0
sVorientation
p3103
Vnone
p3104
sg494
S'termite'
p3105
sVfocus
p3106
(lp3107
sVsticky
p3108
I00
sVurgent
p3109
I00
sVlast_split_layout
p3110
Vsplith
p3111
sVfloating
p3112
Vauto_off
p3113
sVborder
p3114
Vpixel
p3115
sVid
p3116
I94779451201472
sVcurrent_border_width
p3117
I1
sVlayout
p3118
Vsplith
p3119
sVpercent
p3120
F0.5
sVworkspace_layout
p3121
Vdefault
p3122
sVwindow
p3123
I50331651
sVnodes
p3124
(lp3125
sVtype
p3126
Vcon
p3127
sVdeco_rect
p3128
(dp3129
g101
I0
sg102
I0
sVheight
p3130
I0
sVwidth
p3131
I0
ssVswallows
p3132
(lp3133
sVfocused
p3134
I00
sVscratchpad_state
p3135
Vnone
p3136
sVrect
p3137
(dp3138
g101
I551
sg102
I0
sVheight
p3139
I529
sVwidth
p3140
I960
ssVwindow_rect
p3141
(dp3142
g101
I0
sg102
I0
sVheight
p3143
I529
sVwidth
p3144
I960
ssVname
p3145
Vnikd@arch-omen: ~
p3146
sVgeometry
p3147
(dp3148
g101
I0
sg102
I0
sVheight
p3149
I698
sVwidth
p3150
I1122
ssVfloating_nodes
p3151
(lp3152
sVoutput
p3153
VeDP1
p3154
sa(dp3155
Vwindow_properties
p3156
(dp3157
Vinstance
p3158
Vtermite
p3159
sVtransient_for
p3160
NsVclass
p3161
VTermite
p3162
sVtitle
p3163
Vnikd@arch-omen: ~
p3164
ssVfullscreen_mode
p3165
I0
sVorientation
p3166
Vnone
p3167
sg494
S'termite'
p3168
sVfocus
p3169
(lp3170
sVsticky
p3171
I00
sVurgent
p3172
I00
sVlast_split_layout
p3173
Vsplith
p3174
sVfloating
p3175
Vauto_off
p3176
sVborder
p3177
Vpixel
p3178
sVid
p3179
I94779451204736
sVcurrent_border_width
p3180
I1
sVlayout
p3181
Vsplith
p3182
sVpercent
p3183
F0.5
sVworkspace_layout
p3184
Vdefault
p3185
sVwindow
p3186
I37748739
sVnodes
p3187
(lp3188
sVtype
p3189
Vcon
p3190
sVdeco_rect
p3191
(dp3192
g101
I0
sg102
I0
sVheight
p3193
I0
sVwidth
p3194
I0
ssVswallows
p3195
(lp3196
sVfocused
p3197
I00
sVscratchpad_state
p3198
Vnone
p3199
sVrect
p3200
(dp3201
g101
I551
sg102
I960
sVheight
p3202
I529
sVwidth
p3203
I960
ssVwindow_rect
p3204
(dp3205
g101
I0
sg102
I0
sVheight
p3206
I529
sVwidth
p3207
I960
ssVname
p3208
Vnikd@arch-omen: ~
p3209
sVgeometry
p3210
(dp3211
g101
I0
sg102
I0
sVheight
p3212
I698
sVwidth
p3213
I1122
ssVfloating_nodes
p3214
(lp3215
sVoutput
p3216
VeDP1
p3217
sasVtype
p3218
Vcon
p3219
sVdeco_rect
p3220
(dp3221
g101
I0
sg102
I0
sVheight
p3222
I0
sVwidth
p3223
I0
ssVswallows
p3224
(lp3225
sVfocused
p3226
I00
sVscratchpad_state
p3227
Vnone
p3228
sVrect
p3229
(dp3230
g101
I551
sg102
I0
sVheight
p3231
I529
sVwidth
p3232
I1920
ssVwindow_rect
p3233
(dp3234
g101
I0
sg102
I0
sVheight
p3235
I0
sVwidth
p3236
I0
ssVname
p3237
NsVgeometry
p3238
(dp3239
g101
I0
sg102
I0
sVheight
p3240
I0
sVwidth
p3241
I0
ssVfloating_nodes
p3242
(lp3243
sVoutput
p3244
VeDP1
p3245
sasVtype
p3246
Vcon
p3247
sVdeco_rect
p3248
(dp3249
g101
I0
sg102
I0
sVheight
p3250
I0
sVwidth
p3251
I0
ssVswallows
p3252
(lp3253
sVfocused
p3254
I00
sVscratchpad_state
p3255
Vnone
p3256
sVrect
p3257
(dp3258
g101
I22
sg102
I0
sVheight
p3259
I1058
sVwidth
p3260
I1920
ssVwindow_rect
p3261
(dp3262
g101
I0
sg102
I0
sVheight
p3263
I0
sVwidth
p3264
I0
ssVname
p3265
NsVgeometry
p3266
(dp3267
g101
I0
sg102
I0
sVheight
p3268
I0
sVwidth
p3269
I0
ssVfloating_nodes
p3270
(lp3271
sVoutput
p3272
VeDP1
p3273
sasVtype
p3274
Vcon
p3275
sVdeco_rect
p3276
(dp3277
g101
I0
sg102
I640
sVheight
p3278
I22
sVwidth
p3279
I640
ssVswallows
p3280
(lp3281
sVfocused
p3282
I00
sVscratchpad_state
p3283
Vnone
p3284
sVrect
p3285
(dp3286
g101
I22
sg102
I0
sVheight
p3287
I1058
sVwidth
p3288
I1920
ssVwindow_rect
p3289
(dp3290
g101
I0
sg102
I0
sVheight
p3291
I0
sVwidth
p3292
I0
ssVname
p3293
NsVgeometry
p3294
(dp3295
g101
I0
sg102
I0
sVheight
p3296
I0
sVwidth
p3297
I0
ssVfloating_nodes
p3298
(lp3299
sVoutput
p3300
VeDP1
p3301
sa(dp3302
Vwindow_properties
p3303
(dp3304
Vinstance
p3305
Vtermite
p3306
sVtransient_for
p3307
NsVclass
p3308
VTermite
p3309
sVtitle
p3310
VRFKILL(8) - (man:) - NVIM
p3311
ssVfullscreen_mode
p3312
I0
sVorientation
p3313
Vnone
p3314
sg494
S'termite'
p3315
sVfocus
p3316
(lp3317
sVsticky
p3318
I00
sVurgent
p3319
I00
sVlast_split_layout
p3320
Vsplith
p3321
sVfloating
p3322
Vauto_off
p3323
sVborder
p3324
Vpixel
p3325
sVid
p3326
I94779451215872
sVcurrent_border_width
p3327
I1
sVlayout
p3328
Vsplith
p3329
sVpercent
p3330
F0.3333333333333333
sVworkspace_layout
p3331
Vdefault
p3332
sVwindow
p3333
I48234499
sVnodes
p3334
(lp3335
sVtype
p3336
Vcon
p3337
sVdeco_rect
p3338
(dp3339
g101
I0
sg102
I1280
sVheight
p3340
I22
sVwidth
p3341
I640
ssVswallows
p3342
(lp3343
sVfocused
p3344
I00
sVscratchpad_state
p3345
Vnone
p3346
sVrect
p3347
(dp3348
g101
I22
sg102
I0
sVheight
p3349
I1058
sVwidth
p3350
I1920
ssVwindow_rect
p3351
(dp3352
g101
I0
sg102
I0
sVheight
p3353
I1058
sVwidth
p3354
I1920
ssVname
p3355
VRFKILL(8) - (man:) - NVIM
p3356
sVgeometry
p3357
(dp3358
g101
I0
sg102
I0
sVheight
p3359
I698
sVwidth
p3360
I1122
ssVfloating_nodes
p3361
(lp3362
sVoutput
p3363
VeDP1
p3364
sasVtype
p3365
Vcon
p3366
sVdeco_rect
p3367
(dp3368
g101
I0
sg102
I0
sVheight
p3369
I0
sVwidth
p3370
I0
ssVswallows
p3371
(lp3372
sVfocused
p3373
I00
sVscratchpad_state
p3374
Vnone
p3375
sVrect
p3376
(dp3377
g101
I0
sg102
I0
sVheight
p3378
I1080
sVwidth
p3379
I1920
ssVwindow_rect
p3380
(dp3381
g101
I0
sg102
I0
sVheight
p3382
I0
sVwidth
p3383
I0
ssVname
p3384
NsVgeometry
p3385
(dp3386
g101
I0
sg102
I0
sVheight
p3387
I0
sVwidth
p3388
I0
ssVfloating_nodes
p3389
(lp3390
sVoutput
p3391
VeDP1
p3392
sasVtype
p3393
Vcon
p3394
sVdeco_rect
p3395
(dp3396
g101
I0
sg102
I0
sVheight
p3397
I0
sVwidth
p3398
I0
ssVswallows
p3399
(lp3400
sVfocused
p3401
I00
sVscratchpad_state
p3402
Vnone
p3403
sVrect
p3404
(dp3405
g101
I0
sg102
I0
sVheight
p3406
I1080
sVwidth
p3407
I1920
ssVwindow_rect
p3408
(dp3409
g101
I0
sg102
I0
sVheight
p3410
I0
sVwidth
p3411
I0
ssVname
p3412
NsVgeometry
p3413
(dp3414
g101
I0
sg102
I0
sVheight
p3415
I0
sVwidth
p3416
I0
ssVfloating_nodes
p3417
(lp3418
sVoutput
p3419
VeDP1
p3420
sasVtype
p3421
Vworkspace
p3422
sVdeco_rect
p3423
(dp3424
g101
I0
sg102
I0
sVheight
p3425
I0
sVwidth
p3426
I0
ssVswallows
p3427
(lp3428
sVfocused
p3429
I00
sVscratchpad_state
p3430
Vnone
p3431
sVrect
p3432
(dp3433
g101
I0
sg102
I0
sVheight
p3434
I1080
sVwidth
p3435
I1920
ssVwindow_rect
p3436
(dp3437
g101
I0
sg102
I0
sVheight
p3438
I0
sVwidth
p3439
I0
ssVname
p3440
V10
p3441
sVgeometry
p3442
(dp3443
g101
I0
sg102
I0
sVheight
p3444
I0
sVwidth
p3445
I0
ssVgaps
p3446
(dp3447
Vouter
p3448
I0
sVinner
p3449
I0
ssVfloating_nodes
p3450
(lp3451
sVoutput
p3452
VeDP1
p3453
sasVtype
p3454
Vcon
p3455
sVdeco_rect
p3456
(dp3457
g101
I0
sg102
I0
sVheight
p3458
I0
sVwidth
p3459
I0
ssVswallows
p3460
(lp3461
sVfocused
p3462
I00
sVscratchpad_state
p3463
Vnone
p3464
sVrect
p3465
(dp3466
g101
I0
sg102
I0
sVheight
p3467
I1080
sVwidth
p3468
I1920
ssVwindow_rect
p3469
(dp3470
g101
I0
sg102
I0
sVheight
p3471
I0
sVwidth
p3472
I0
ssVname
p3473
Vcontent
p3474
sVgeometry
p3475
(dp3476
g101
I0
sg102
I0
sVheight
p3477
I0
sVwidth
p3478
I0
ssVfloating_nodes
p3479
(lp3480
sVoutput
p3481
VeDP1
p3482
sa(dp3483
Vfullscreen_mode
p3484
I0
sVorientation
p3485
Vnone
p3486
sVfocus
p3487
(lp3488
sVsticky
p3489
I00
sVurgent
p3490
I00
sVlast_split_layout
p3491
Vsplith
p3492
sVfloating
p3493
Vauto_off
p3494
sVborder
p3495
Vnormal
p3496
sVid
p3497
I94779451229648
sVcurrent_border_width
p3498
I-1
sVlayout
p3499
Vdockarea
p3500
sVpercent
p3501
F0.3333333333333333
sVworkspace_layout
p3502
Vdefault
p3503
sVwindow
p3504
NsVnodes
p3505
(lp3506
sVtype
p3507
Vdockarea
p3508
sVdeco_rect
p3509
(dp3510
g101
I0
sg102
I0
sVheight
p3511
I0
sVwidth
p3512
I0
ssVswallows
p3513
(lp3514
(dp3515
Vdock
p3516
I3
sVinsert_where
p3517
I2
sasVfocused
p3518
I00
sVscratchpad_state
p3519
Vnone
p3520
sVrect
p3521
(dp3522
g101
I1080
sg102
I0
sVheight
p3523
I0
sVwidth
p3524
I1920
ssVwindow_rect
p3525
(dp3526
g101
I0
sg102
I0
sVheight
p3527
I0
sVwidth
p3528
I0
ssVname
p3529
Vbottomdock
p3530
sVgeometry
p3531
(dp3532
g101
I0
sg102
I0
sVheight
p3533
I0
sVwidth
p3534
I0
ssVfloating_nodes
p3535
(lp3536
sVoutput
p3537
VeDP1
p3538
sasVtype
p3539
Voutput
p3540
sVdeco_rect
p3541
(dp3542
g101
I0
sg102
I0
sVheight
p3543
I0
sVwidth
p3544
I0
ssVswallows
p3545
(lp3546
sVfocused
p3547
I00
sVscratchpad_state
p3548
Vnone
p3549
sVrect
p3550
(dp3551
g101
I0
sg102
I0
sVheight
p3552
I1080
sVwidth
p3553
I1920
ssVwindow_rect
p3554
(dp3555
g101
I0
sg102
I0
sVheight
p3556
I0
sVwidth
p3557
I0
ssVname
p3558
VeDP1
p3559
sVgeometry
p3560
(dp3561
g101
I0
sg102
I0
sVheight
p3562
I0
sVwidth
p3563
I0
ssVfloating_nodes
p3564
(lp3565
sasVtype
p3566
Vroot
p3567
sVdeco_rect
p3568
(dp3569
g101
I0
sg102
I0
sVheight
p3570
I0
sVwidth
p3571
I0
ssVswallows
p3572
(lp3573
sVfocused
p3574
I00
sVscratchpad_state
p3575
Vnone
p3576
sVrect
p3577
(dp3578
g101
I0
sg102
I0
sVheight
p3579
I1080
sVwidth
p3580
I1920
ssVwindow_rect
p3581
(dp3582
g101
I0
sg102
I0
sVheight
p3583
I0
sVwidth
p3584
I0
ssVname
p3585
Vroot
p3586
sVgeometry
p3587
(dp3588
g101
I0
sg102
I0
sVheight
p3589
I0
sVwidth
p3590
I0
ssVfloating_nodes
p3591
(lp3592
s.